
LCD_LIBRERIA.elf:     file format elf32-avr

Sections:
Idx Name          Size      VMA       LMA       File off  Algn
  0 .data         0000001c  00800100  000002b8  0000034c  2**0
                  CONTENTS, ALLOC, LOAD, DATA
  1 .text         000002b8  00000000  00000000  00000094  2**1
                  CONTENTS, ALLOC, LOAD, READONLY, CODE
  2 .bss          00000001  0080011c  0080011c  00000368  2**0
                  ALLOC
  3 .comment      00000030  00000000  00000000  00000368  2**0
                  CONTENTS, READONLY
  4 .note.gnu.avr.deviceinfo 00000040  00000000  00000000  00000398  2**2
                  CONTENTS, READONLY
  5 .debug_aranges 000000d0  00000000  00000000  000003d8  2**0
                  CONTENTS, READONLY, DEBUGGING
  6 .debug_info   0000139e  00000000  00000000  000004a8  2**0
                  CONTENTS, READONLY, DEBUGGING
  7 .debug_abbrev 000009c1  00000000  00000000  00001846  2**0
                  CONTENTS, READONLY, DEBUGGING
  8 .debug_line   00000750  00000000  00000000  00002207  2**0
                  CONTENTS, READONLY, DEBUGGING
  9 .debug_frame  0000019c  00000000  00000000  00002958  2**2
                  CONTENTS, READONLY, DEBUGGING
 10 .debug_str    000005f9  00000000  00000000  00002af4  2**0
                  CONTENTS, READONLY, DEBUGGING
 11 .debug_loc    0000079c  00000000  00000000  000030ed  2**0
                  CONTENTS, READONLY, DEBUGGING
 12 .debug_ranges 000000b0  00000000  00000000  00003889  2**0
                  CONTENTS, READONLY, DEBUGGING

Disassembly of section .text:

00000000 <__vectors>:
   0:	45 c0       	rjmp	.+138    	; 0x8c <__ctors_end>
   2:	00 00       	nop
   4:	60 c0       	rjmp	.+192    	; 0xc6 <__bad_interrupt>
   6:	00 00       	nop
   8:	5e c0       	rjmp	.+188    	; 0xc6 <__bad_interrupt>
   a:	00 00       	nop
   c:	5c c0       	rjmp	.+184    	; 0xc6 <__bad_interrupt>
   e:	00 00       	nop
  10:	5a c0       	rjmp	.+180    	; 0xc6 <__bad_interrupt>
  12:	00 00       	nop
  14:	58 c0       	rjmp	.+176    	; 0xc6 <__bad_interrupt>
  16:	00 00       	nop
  18:	56 c0       	rjmp	.+172    	; 0xc6 <__bad_interrupt>
  1a:	00 00       	nop
  1c:	54 c0       	rjmp	.+168    	; 0xc6 <__bad_interrupt>
  1e:	00 00       	nop
  20:	52 c0       	rjmp	.+164    	; 0xc6 <__bad_interrupt>
  22:	00 00       	nop
  24:	50 c0       	rjmp	.+160    	; 0xc6 <__bad_interrupt>
  26:	00 00       	nop
  28:	4e c0       	rjmp	.+156    	; 0xc6 <__bad_interrupt>
  2a:	00 00       	nop
  2c:	4c c0       	rjmp	.+152    	; 0xc6 <__bad_interrupt>
  2e:	00 00       	nop
  30:	4a c0       	rjmp	.+148    	; 0xc6 <__bad_interrupt>
  32:	00 00       	nop
  34:	48 c0       	rjmp	.+144    	; 0xc6 <__bad_interrupt>
  36:	00 00       	nop
  38:	46 c0       	rjmp	.+140    	; 0xc6 <__bad_interrupt>
  3a:	00 00       	nop
  3c:	44 c0       	rjmp	.+136    	; 0xc6 <__bad_interrupt>
  3e:	00 00       	nop
  40:	42 c0       	rjmp	.+132    	; 0xc6 <__bad_interrupt>
  42:	00 00       	nop
  44:	40 c0       	rjmp	.+128    	; 0xc6 <__bad_interrupt>
  46:	00 00       	nop
  48:	3e c0       	rjmp	.+124    	; 0xc6 <__bad_interrupt>
  4a:	00 00       	nop
  4c:	3c c0       	rjmp	.+120    	; 0xc6 <__bad_interrupt>
  4e:	00 00       	nop
  50:	3a c0       	rjmp	.+116    	; 0xc6 <__bad_interrupt>
  52:	00 00       	nop
  54:	38 c0       	rjmp	.+112    	; 0xc6 <__bad_interrupt>
  56:	00 00       	nop
  58:	36 c0       	rjmp	.+108    	; 0xc6 <__bad_interrupt>
  5a:	00 00       	nop
  5c:	34 c0       	rjmp	.+104    	; 0xc6 <__bad_interrupt>
  5e:	00 00       	nop
  60:	32 c0       	rjmp	.+100    	; 0xc6 <__bad_interrupt>
  62:	00 00       	nop
  64:	30 c0       	rjmp	.+96     	; 0xc6 <__bad_interrupt>
  66:	00 00       	nop
  68:	2e c0       	rjmp	.+92     	; 0xc6 <__bad_interrupt>
  6a:	00 00       	nop
  6c:	2c c0       	rjmp	.+88     	; 0xc6 <__bad_interrupt>
  6e:	00 00       	nop
  70:	2a c0       	rjmp	.+84     	; 0xc6 <__bad_interrupt>
  72:	00 00       	nop
  74:	28 c0       	rjmp	.+80     	; 0xc6 <__bad_interrupt>
  76:	00 00       	nop
  78:	26 c0       	rjmp	.+76     	; 0xc6 <__bad_interrupt>
  7a:	00 00       	nop
  7c:	24 c0       	rjmp	.+72     	; 0xc6 <__bad_interrupt>
  7e:	00 00       	nop
  80:	22 c0       	rjmp	.+68     	; 0xc6 <__bad_interrupt>
  82:	00 00       	nop
  84:	20 c0       	rjmp	.+64     	; 0xc6 <__bad_interrupt>
  86:	00 00       	nop
  88:	1e c0       	rjmp	.+60     	; 0xc6 <__bad_interrupt>
	...

0000008c <__ctors_end>:
  8c:	11 24       	eor	r1, r1
  8e:	1f be       	out	0x3f, r1	; 63
  90:	cf ef       	ldi	r28, 0xFF	; 255
  92:	d0 e4       	ldi	r29, 0x40	; 64
  94:	de bf       	out	0x3e, r29	; 62
  96:	cd bf       	out	0x3d, r28	; 61

00000098 <__do_copy_data>:
  98:	11 e0       	ldi	r17, 0x01	; 1
  9a:	a0 e0       	ldi	r26, 0x00	; 0
  9c:	b1 e0       	ldi	r27, 0x01	; 1
  9e:	e8 eb       	ldi	r30, 0xB8	; 184
  a0:	f2 e0       	ldi	r31, 0x02	; 2
  a2:	00 e0       	ldi	r16, 0x00	; 0
  a4:	0b bf       	out	0x3b, r16	; 59
  a6:	02 c0       	rjmp	.+4      	; 0xac <__do_copy_data+0x14>
  a8:	07 90       	elpm	r0, Z+
  aa:	0d 92       	st	X+, r0
  ac:	ac 31       	cpi	r26, 0x1C	; 28
  ae:	b1 07       	cpc	r27, r17
  b0:	d9 f7       	brne	.-10     	; 0xa8 <__do_copy_data+0x10>

000000b2 <__do_clear_bss>:
  b2:	21 e0       	ldi	r18, 0x01	; 1
  b4:	ac e1       	ldi	r26, 0x1C	; 28
  b6:	b1 e0       	ldi	r27, 0x01	; 1
  b8:	01 c0       	rjmp	.+2      	; 0xbc <.do_clear_bss_start>

000000ba <.do_clear_bss_loop>:
  ba:	1d 92       	st	X+, r1

000000bc <.do_clear_bss_start>:
  bc:	ad 31       	cpi	r26, 0x1D	; 29
  be:	b2 07       	cpc	r27, r18
  c0:	e1 f7       	brne	.-8      	; 0xba <.do_clear_bss_loop>
  c2:	e4 d0       	rcall	.+456    	; 0x28c <main>
  c4:	f7 c0       	rjmp	.+494    	; 0x2b4 <_exit>

000000c6 <__bad_interrupt>:
  c6:	9c cf       	rjmp	.-200    	; 0x0 <__vectors>

000000c8 <_write_nibble>:
	#else
		//round up by default
		__ticks_dc = (uint32_t)(ceil(fabs(__tmp)));
	#endif

	__builtin_avr_delay_cycles(__ticks_dc);
  c8:	80 fd       	sbrc	r24, 0
  ca:	04 c0       	rjmp	.+8      	; 0xd4 <_write_nibble+0xc>
  cc:	92 b1       	in	r25, 0x02	; 2
  ce:	9f 7e       	andi	r25, 0xEF	; 239
  d0:	92 b9       	out	0x02, r25	; 2
  d2:	03 c0       	rjmp	.+6      	; 0xda <_write_nibble+0x12>
  d4:	92 b1       	in	r25, 0x02	; 2
  d6:	90 61       	ori	r25, 0x10	; 16
  d8:	92 b9       	out	0x02, r25	; 2
  da:	81 fd       	sbrc	r24, 1
  dc:	04 c0       	rjmp	.+8      	; 0xe6 <_write_nibble+0x1e>
  de:	92 b1       	in	r25, 0x02	; 2
  e0:	9f 7d       	andi	r25, 0xDF	; 223
  e2:	92 b9       	out	0x02, r25	; 2
  e4:	03 c0       	rjmp	.+6      	; 0xec <_write_nibble+0x24>
  e6:	92 b1       	in	r25, 0x02	; 2
  e8:	90 62       	ori	r25, 0x20	; 32
  ea:	92 b9       	out	0x02, r25	; 2
  ec:	82 fd       	sbrc	r24, 2
  ee:	04 c0       	rjmp	.+8      	; 0xf8 <_write_nibble+0x30>
  f0:	92 b1       	in	r25, 0x02	; 2
  f2:	9f 7b       	andi	r25, 0xBF	; 191
  f4:	92 b9       	out	0x02, r25	; 2
  f6:	03 c0       	rjmp	.+6      	; 0xfe <_write_nibble+0x36>
  f8:	92 b1       	in	r25, 0x02	; 2
  fa:	90 64       	ori	r25, 0x40	; 64
  fc:	92 b9       	out	0x02, r25	; 2
  fe:	83 fd       	sbrc	r24, 3
 100:	04 c0       	rjmp	.+8      	; 0x10a <_write_nibble+0x42>
 102:	82 b1       	in	r24, 0x02	; 2
 104:	8f 77       	andi	r24, 0x7F	; 127
 106:	82 b9       	out	0x02, r24	; 2
 108:	03 c0       	rjmp	.+6      	; 0x110 <_write_nibble+0x48>
 10a:	82 b1       	in	r24, 0x02	; 2
 10c:	80 68       	ori	r24, 0x80	; 128
 10e:	82 b9       	out	0x02, r24	; 2
 110:	82 b1       	in	r24, 0x02	; 2
 112:	8d 7f       	andi	r24, 0xFD	; 253
 114:	82 b9       	out	0x02, r24	; 2
 116:	82 b1       	in	r24, 0x02	; 2
 118:	82 60       	ori	r24, 0x02	; 2
 11a:	82 b9       	out	0x02, r24	; 2
 11c:	82 b1       	in	r24, 0x02	; 2
 11e:	8d 7f       	andi	r24, 0xFD	; 253
 120:	82 b9       	out	0x02, r24	; 2
 122:	8b ed       	ldi	r24, 0xDB	; 219
 124:	95 e0       	ldi	r25, 0x05	; 5
 126:	01 97       	sbiw	r24, 0x01	; 1
 128:	f1 f7       	brne	.-4      	; 0x126 <_write_nibble+0x5e>
 12a:	00 c0       	rjmp	.+0      	; 0x12c <_write_nibble+0x64>
 12c:	00 00       	nop
 12e:	08 95       	ret

00000130 <_send_byte>:
 130:	cf 93       	push	r28
 132:	c8 2f       	mov	r28, r24
 134:	66 23       	and	r22, r22
 136:	19 f0       	breq	.+6      	; 0x13e <_send_byte+0xe>
 138:	61 30       	cpi	r22, 0x01	; 1
 13a:	29 f0       	breq	.+10     	; 0x146 <_send_byte+0x16>
 13c:	07 c0       	rjmp	.+14     	; 0x14c <_send_byte+0x1c>
 13e:	82 b1       	in	r24, 0x02	; 2
 140:	8e 7f       	andi	r24, 0xFE	; 254
 142:	82 b9       	out	0x02, r24	; 2
 144:	03 c0       	rjmp	.+6      	; 0x14c <_send_byte+0x1c>
 146:	82 b1       	in	r24, 0x02	; 2
 148:	81 60       	ori	r24, 0x01	; 1
 14a:	82 b9       	out	0x02, r24	; 2
 14c:	8c 2f       	mov	r24, r28
 14e:	82 95       	swap	r24
 150:	8f 70       	andi	r24, 0x0F	; 15
 152:	ba df       	rcall	.-140    	; 0xc8 <_write_nibble>
 154:	8c 2f       	mov	r24, r28
 156:	8f 70       	andi	r24, 0x0F	; 15
 158:	b7 df       	rcall	.-146    	; 0xc8 <_write_nibble>
 15a:	cf 91       	pop	r28
 15c:	08 95       	ret

0000015e <lcd_write>:
 15e:	61 e0       	ldi	r22, 0x01	; 1
 160:	e7 cf       	rjmp	.-50     	; 0x130 <_send_byte>
 162:	08 95       	ret

00000164 <lcd_command>:
 164:	60 e0       	ldi	r22, 0x00	; 0
 166:	e4 cf       	rjmp	.-56     	; 0x130 <_send_byte>
 168:	08 95       	ret

0000016a <lcd_init>:
 16a:	81 b1       	in	r24, 0x01	; 1
 16c:	81 60       	ori	r24, 0x01	; 1
 16e:	81 b9       	out	0x01, r24	; 1
 170:	81 b1       	in	r24, 0x01	; 1
 172:	82 60       	ori	r24, 0x02	; 2
 174:	81 b9       	out	0x01, r24	; 1
 176:	81 b1       	in	r24, 0x01	; 1
 178:	80 61       	ori	r24, 0x10	; 16
 17a:	81 b9       	out	0x01, r24	; 1
 17c:	81 b1       	in	r24, 0x01	; 1
 17e:	80 62       	ori	r24, 0x20	; 32
 180:	81 b9       	out	0x01, r24	; 1
 182:	81 b1       	in	r24, 0x01	; 1
 184:	80 64       	ori	r24, 0x40	; 64
 186:	81 b9       	out	0x01, r24	; 1
 188:	81 b1       	in	r24, 0x01	; 1
 18a:	80 68       	ori	r24, 0x80	; 128
 18c:	81 b9       	out	0x01, r24	; 1
 18e:	82 b1       	in	r24, 0x02	; 2
 190:	8e 7f       	andi	r24, 0xFE	; 254
 192:	82 b9       	out	0x02, r24	; 2
 194:	82 b1       	in	r24, 0x02	; 2
 196:	8d 7f       	andi	r24, 0xFD	; 253
 198:	82 b9       	out	0x02, r24	; 2
 19a:	82 b1       	in	r24, 0x02	; 2
 19c:	8f 7e       	andi	r24, 0xEF	; 239
 19e:	82 b9       	out	0x02, r24	; 2
 1a0:	82 b1       	in	r24, 0x02	; 2
 1a2:	8f 7d       	andi	r24, 0xDF	; 223
 1a4:	82 b9       	out	0x02, r24	; 2
 1a6:	82 b1       	in	r24, 0x02	; 2
 1a8:	8f 7b       	andi	r24, 0xBF	; 191
 1aa:	82 b9       	out	0x02, r24	; 2
 1ac:	82 b1       	in	r24, 0x02	; 2
 1ae:	8f 77       	andi	r24, 0x7F	; 127
 1b0:	82 b9       	out	0x02, r24	; 2
 1b2:	2f e5       	ldi	r18, 0x5F	; 95
 1b4:	8a ee       	ldi	r24, 0xEA	; 234
 1b6:	90 e0       	ldi	r25, 0x00	; 0
 1b8:	21 50       	subi	r18, 0x01	; 1
 1ba:	80 40       	sbci	r24, 0x00	; 0
 1bc:	90 40       	sbci	r25, 0x00	; 0
 1be:	e1 f7       	brne	.-8      	; 0x1b8 <lcd_init+0x4e>
 1c0:	00 c0       	rjmp	.+0      	; 0x1c2 <lcd_init+0x58>
 1c2:	00 00       	nop
 1c4:	83 e0       	ldi	r24, 0x03	; 3
 1c6:	80 df       	rcall	.-256    	; 0xc8 <_write_nibble>
 1c8:	83 e1       	ldi	r24, 0x13	; 19
 1ca:	90 e5       	ldi	r25, 0x50	; 80
 1cc:	01 97       	sbiw	r24, 0x01	; 1
 1ce:	f1 f7       	brne	.-4      	; 0x1cc <lcd_init+0x62>
 1d0:	00 c0       	rjmp	.+0      	; 0x1d2 <lcd_init+0x68>
 1d2:	00 00       	nop
 1d4:	83 e0       	ldi	r24, 0x03	; 3
 1d6:	78 df       	rcall	.-272    	; 0xc8 <_write_nibble>
 1d8:	83 ef       	ldi	r24, 0xF3	; 243
 1da:	91 e0       	ldi	r25, 0x01	; 1
 1dc:	01 97       	sbiw	r24, 0x01	; 1
 1de:	f1 f7       	brne	.-4      	; 0x1dc <lcd_init+0x72>
 1e0:	00 c0       	rjmp	.+0      	; 0x1e2 <lcd_init+0x78>
 1e2:	00 00       	nop
 1e4:	83 e0       	ldi	r24, 0x03	; 3
 1e6:	70 df       	rcall	.-288    	; 0xc8 <_write_nibble>
 1e8:	82 e0       	ldi	r24, 0x02	; 2
 1ea:	6e df       	rcall	.-292    	; 0xc8 <_write_nibble>
 1ec:	88 e2       	ldi	r24, 0x28	; 40
 1ee:	ba df       	rcall	.-140    	; 0x164 <lcd_command>
 1f0:	96 ef       	ldi	r25, 0xF6	; 246
 1f2:	9a 95       	dec	r25
 1f4:	f1 f7       	brne	.-4      	; 0x1f2 <lcd_init+0x88>
 1f6:	00 c0       	rjmp	.+0      	; 0x1f8 <lcd_init+0x8e>
 1f8:	87 e0       	ldi	r24, 0x07	; 7
 1fa:	80 93 1c 01 	sts	0x011C, r24	; 0x80011c <__data_end>
 1fe:	8f e0       	ldi	r24, 0x0F	; 15
 200:	b1 df       	rcall	.-158    	; 0x164 <lcd_command>
 202:	26 ef       	ldi	r18, 0xF6	; 246
 204:	2a 95       	dec	r18
 206:	f1 f7       	brne	.-4      	; 0x204 <lcd_init+0x9a>
 208:	00 c0       	rjmp	.+0      	; 0x20a <lcd_init+0xa0>
 20a:	81 e0       	ldi	r24, 0x01	; 1
 20c:	ab df       	rcall	.-170    	; 0x164 <lcd_command>
 20e:	8f e0       	ldi	r24, 0x0F	; 15
 210:	97 e2       	ldi	r25, 0x27	; 39
 212:	01 97       	sbiw	r24, 0x01	; 1
 214:	f1 f7       	brne	.-4      	; 0x212 <lcd_init+0xa8>
 216:	00 c0       	rjmp	.+0      	; 0x218 <lcd_init+0xae>
 218:	00 00       	nop
 21a:	08 95       	ret

0000021c <lcd_puts>:
 21c:	cf 93       	push	r28
 21e:	df 93       	push	r29
 220:	ec 01       	movw	r28, r24
 222:	02 c0       	rjmp	.+4      	; 0x228 <lcd_puts+0xc>
 224:	9c df       	rcall	.-200    	; 0x15e <lcd_write>
 226:	21 96       	adiw	r28, 0x01	; 1
 228:	88 81       	ld	r24, Y
 22a:	81 11       	cpse	r24, r1
 22c:	fb cf       	rjmp	.-10     	; 0x224 <lcd_puts+0x8>
 22e:	df 91       	pop	r29
 230:	cf 91       	pop	r28
 232:	08 95       	ret

00000234 <lcd_set_cursor>:
 234:	e8 2f       	mov	r30, r24
 236:	f0 e0       	ldi	r31, 0x00	; 0
 238:	e1 5f       	subi	r30, 0xF1	; 241
 23a:	fe 4f       	sbci	r31, 0xFE	; 254
 23c:	80 81       	ld	r24, Z
 23e:	86 0f       	add	r24, r22
 240:	81 50       	subi	r24, 0x01	; 1
 242:	80 68       	ori	r24, 0x80	; 128
 244:	8f cf       	rjmp	.-226    	; 0x164 <lcd_command>
 246:	08 95       	ret

00000248 <lcd_custom_char>:
void lcd_scroll_right(void){
	 lcd_command(_LCD_CURSORDISPLAYSHIFT | _LCD_DISPLAY_SHIFT | _LCD_MOVERIGHT);
	 _delay_us(37);
}

void lcd_custom_char(uint8_t mem, uint8_t *charmap){
 248:	0f 93       	push	r16
 24a:	1f 93       	push	r17
 24c:	cf 93       	push	r28
 24e:	8b 01       	movw	r16, r22
	lcd_command(_LCD_SET_CGRAM_ADDR |  ((mem&0x07)<<3) );
 250:	87 70       	andi	r24, 0x07	; 7
 252:	90 e0       	ldi	r25, 0x00	; 0
 254:	88 0f       	add	r24, r24
 256:	99 1f       	adc	r25, r25
 258:	88 0f       	add	r24, r24
 25a:	99 1f       	adc	r25, r25
 25c:	88 0f       	add	r24, r24
 25e:	99 1f       	adc	r25, r25
 260:	80 64       	ori	r24, 0x40	; 64
 262:	80 df       	rcall	.-256    	; 0x164 <lcd_command>
	for(uint8_t i=0; i<=7; i++){
 264:	c0 e0       	ldi	r28, 0x00	; 0
 266:	06 c0       	rjmp	.+12     	; 0x274 <lcd_custom_char+0x2c>
		lcd_write(charmap[i]);
 268:	f8 01       	movw	r30, r16
 26a:	ec 0f       	add	r30, r28
 26c:	f1 1d       	adc	r31, r1
 26e:	80 81       	ld	r24, Z
 270:	76 df       	rcall	.-276    	; 0x15e <lcd_write>
	 _delay_us(37);
}

void lcd_custom_char(uint8_t mem, uint8_t *charmap){
	lcd_command(_LCD_SET_CGRAM_ADDR |  ((mem&0x07)<<3) );
	for(uint8_t i=0; i<=7; i++){
 272:	cf 5f       	subi	r28, 0xFF	; 255
 274:	c8 30       	cpi	r28, 0x08	; 8
		lcd_write(charmap[i]);
	}
	lcd_command(_LCD_SET_DDRAM_ADDR);
 276:	c0 f3       	brcs	.-16     	; 0x268 <lcd_custom_char+0x20>
 278:	80 e8       	ldi	r24, 0x80	; 128
 27a:	74 df       	rcall	.-280    	; 0x164 <lcd_command>
 27c:	86 ef       	ldi	r24, 0xF6	; 246
 27e:	8a 95       	dec	r24
 280:	f1 f7       	brne	.-4      	; 0x27e <lcd_custom_char+0x36>
 282:	00 c0       	rjmp	.+0      	; 0x284 <lcd_custom_char+0x3c>
	_delay_us(37);
 284:	cf 91       	pop	r28
 286:	1f 91       	pop	r17
 288:	0f 91       	pop	r16
 28a:	08 95       	ret

0000028c <main>:

int contador=25, val=56;

int main(void)
{
    lcd_init();
 28c:	6e df       	rcall	.-292    	; 0x16a <lcd_init>
	
	//MAPEANDO EL EL CARACTER EN LA MEMORIA 0, 1
	lcd_custom_char(0, Javier);
 28e:	68 e0       	ldi	r22, 0x08	; 8
 290:	71 e0       	ldi	r23, 0x01	; 1
 292:	80 e0       	ldi	r24, 0x00	; 0
 294:	d9 df       	rcall	.-78     	; 0x248 <lcd_custom_char>
	lcd_custom_char(1, char02);
 296:	60 e0       	ldi	r22, 0x00	; 0
 298:	71 e0       	ldi	r23, 0x01	; 1
 29a:	81 e0       	ldi	r24, 0x01	; 1
 29c:	d5 df       	rcall	.-86     	; 0x248 <lcd_custom_char>
	
	lcd_set_cursor(1,7); lcd_puts("Javier ");
 29e:	67 e0       	ldi	r22, 0x07	; 7
 2a0:	81 e0       	ldi	r24, 0x01	; 1
 2a2:	c8 df       	rcall	.-112    	; 0x234 <lcd_set_cursor>
 2a4:	84 e1       	ldi	r24, 0x14	; 20
 2a6:	91 e0       	ldi	r25, 0x01	; 1
 2a8:	b9 df       	rcall	.-142    	; 0x21c <lcd_puts>
	lcd_write(0);
 2aa:	80 e0       	ldi	r24, 0x00	; 0
 2ac:	58 df       	rcall	.-336    	; 0x15e <lcd_write>
 2ae:	81 e0       	ldi	r24, 0x01	; 1
	lcd_write(1);
 2b0:	56 df       	rcall	.-340    	; 0x15e <lcd_write>
 2b2:	ff cf       	rjmp	.-2      	; 0x2b2 <main+0x26>

000002b4 <_exit>:
 2b4:	f8 94       	cli

000002b6 <__stop_program>:
 2b6:	ff cf       	rjmp	.-2      	; 0x2b6 <__stop_program>
