

Microchip MPLAB XC8 Assembler V2.41 build 20230208172133 
                                                                                               Fri Sep 01 20:44:07 2023

Microchip MPLAB XC8 C Compiler v2.41 (Free license) build 20230208172133 Og1 
     1                           	processor	16F1939
     2                           	pagewidth 120
     3                           	opt	flic
     4                           	psect	stringtext1,global,class=STRCODE,delta=2,noexec
     5                           	psect	stringtext2,global,class=STRCODE,delta=2,noexec
     6                           	psect	cinit,global,class=CODE,merge=1,delta=2
     7                           	psect	cstackCOMMON,global,class=COMMON,space=1,delta=1,noexec
     8                           	psect	maintext,global,class=CODE,merge=1,split=1,delta=2
     9                           	psect	text1,local,class=CODE,merge=1,delta=2
    10                           	psect	text2,local,class=CODE,merge=1,delta=2
    11                           	psect	text3,local,class=CODE,merge=1,delta=2
    12                           	psect	text4,local,class=CODE,merge=1,delta=2
    13                           	psect	text5,local,class=CODE,merge=1,delta=2
    14                           	psect	text6,local,class=CODE,merge=1,delta=2
    15                           	psect	idloc,global,abs,ovrld,class=IDLOC,space=5,delta=2,noexec
    16                           	psect	config,global,abs,ovrld,class=CONFIG,space=4,delta=2,noexec
    17                           	dabs	1,0x7E,2
    18     0000                     
    19                           ; Generated 06/07/2023 GMT
    20                           ; 
    21                           ; Copyright © 2023, Microchip Technology Inc. and its subsidiaries ("Microchip")
    22                           ; All rights reserved.
    23                           ; 
    24                           ; This software is developed by Microchip Technology Inc. and its subsidiaries ("Microch
      +                          ip").
    25                           ; 
    26                           ; Redistribution and use in source and binary forms, with or without modification, are
    27                           ; permitted provided that the following conditions are met:
    28                           ; 
    29                           ;     1. Redistributions of source code must retain the above copyright notice, this lis
      +                          t of
    30                           ;        conditions and the following disclaimer.
    31                           ; 
    32                           ;     2. Redistributions in binary form must reproduce the above copyright notice, this 
      +                          list
    33                           ;        of conditions and the following disclaimer in the documentation and/or other
    34                           ;        materials provided with the distribution. Publication is not required when
    35                           ;        this file is used in an embedded application.
    36                           ; 
    37                           ;     3. Microchip's name may not be used to endorse or promote products derived from th
      +                          is
    38                           ;        software without specific prior written permission.
    39                           ; 
    40                           ; THIS SOFTWARE IS PROVIDED BY MICROCHIP "AS IS" AND ANY EXPRESS OR IMPLIED WARRANTIES,
    41                           ; INCLUDING, BUT NOT LIMITED TO, THE IMPLIED WARRANTIES OF MERCHANTABILITY AND FITNESS F
      +                          OR
    42                           ; PURPOSE ARE DISCLAIMED.  IN NO EVENT SHALL MICROCHIP BE LIABLE FOR ANY DIRECT, INDIREC
      +                          T,
    43                           ; INCIDENTAL, SPECIAL, EXEMPLARY, OR CONSEQUENTIAL DAMAGES (INCLUDING BUT NOT LIMITED TO
    44                           ; PROCUREMENT OF SUBSTITUTE GOODS OR SERVICES; LOSS OF USE, DATA OR PROFITS; OR BUSINESS
    45                           ; INTERRUPTION) HOWSOEVER CAUSED AND ON ANY THEORY OF LIABILITY, WHETHER IN CONTRACT, ST
      +                          RICT
    46                           ; LIABILITY, OR TORT (INCLUDING NEGLIGENCE OR OTHERWISE) ARISING IN ANY WAY OUT OF THE U
      +                          SE OF
    47                           ; THIS SOFTWARE, EVEN IF ADVISED OF THE POSSIBILITY OF SUCH DAMAGE.
    48                           ; 
    49                           ; 
    50                           ; Code-generator required, PIC16F1939 Definitions
    51                           ; 
    52                           ; SFR Addresses
    53     0000                     	;# 
    54     0001                     	;# 
    55     0002                     	;# 
    56     0003                     	;# 
    57     0004                     	;# 
    58     0005                     	;# 
    59     0006                     	;# 
    60     0007                     	;# 
    61     0008                     	;# 
    62     0009                     	;# 
    63     000A                     	;# 
    64     000B                     	;# 
    65     000C                     	;# 
    66     000D                     	;# 
    67     000E                     	;# 
    68     000F                     	;# 
    69     0010                     	;# 
    70     0011                     	;# 
    71     0012                     	;# 
    72     0013                     	;# 
    73     0015                     	;# 
    74     0016                     	;# 
    75     0016                     	;# 
    76     0017                     	;# 
    77     0018                     	;# 
    78     0019                     	;# 
    79     001A                     	;# 
    80     001B                     	;# 
    81     001C                     	;# 
    82     001E                     	;# 
    83     001F                     	;# 
    84     008C                     	;# 
    85     008D                     	;# 
    86     008E                     	;# 
    87     008F                     	;# 
    88     0090                     	;# 
    89     0091                     	;# 
    90     0092                     	;# 
    91     0093                     	;# 
    92     0095                     	;# 
    93     0096                     	;# 
    94     0097                     	;# 
    95     0098                     	;# 
    96     0099                     	;# 
    97     009A                     	;# 
    98     009B                     	;# 
    99     009B                     	;# 
   100     009C                     	;# 
   101     009D                     	;# 
   102     009E                     	;# 
   103     010C                     	;# 
   104     010D                     	;# 
   105     010E                     	;# 
   106     010F                     	;# 
   107     0110                     	;# 
   108     0111                     	;# 
   109     0112                     	;# 
   110     0113                     	;# 
   111     0114                     	;# 
   112     0115                     	;# 
   113     0116                     	;# 
   114     0117                     	;# 
   115     0118                     	;# 
   116     0119                     	;# 
   117     011A                     	;# 
   118     011B                     	;# 
   119     011D                     	;# 
   120     018C                     	;# 
   121     018D                     	;# 
   122     018F                     	;# 
   123     0190                     	;# 
   124     0191                     	;# 
   125     0191                     	;# 
   126     0192                     	;# 
   127     0193                     	;# 
   128     0193                     	;# 
   129     0193                     	;# 
   130     0194                     	;# 
   131     0195                     	;# 
   132     0196                     	;# 
   133     0199                     	;# 
   134     019A                     	;# 
   135     019B                     	;# 
   136     019B                     	;# 
   137     019B                     	;# 
   138     019B                     	;# 
   139     019C                     	;# 
   140     019C                     	;# 
   141     019D                     	;# 
   142     019E                     	;# 
   143     019F                     	;# 
   144     020D                     	;# 
   145     0210                     	;# 
   146     0211                     	;# 
   147     0212                     	;# 
   148     0213                     	;# 
   149     0214                     	;# 
   150     0215                     	;# 
   151     0215                     	;# 
   152     0216                     	;# 
   153     0217                     	;# 
   154     0291                     	;# 
   155     0291                     	;# 
   156     0292                     	;# 
   157     0293                     	;# 
   158     0294                     	;# 
   159     0295                     	;# 
   160     0295                     	;# 
   161     0296                     	;# 
   162     0298                     	;# 
   163     0298                     	;# 
   164     0299                     	;# 
   165     029A                     	;# 
   166     029B                     	;# 
   167     029C                     	;# 
   168     029C                     	;# 
   169     029D                     	;# 
   170     029E                     	;# 
   171     029F                     	;# 
   172     0311                     	;# 
   173     0311                     	;# 
   174     0312                     	;# 
   175     0313                     	;# 
   176     0314                     	;# 
   177     0315                     	;# 
   178     0315                     	;# 
   179     0316                     	;# 
   180     0318                     	;# 
   181     0318                     	;# 
   182     0319                     	;# 
   183     031A                     	;# 
   184     031C                     	;# 
   185     031C                     	;# 
   186     031D                     	;# 
   187     031E                     	;# 
   188     0394                     	;# 
   189     0395                     	;# 
   190     0396                     	;# 
   191     0415                     	;# 
   192     0416                     	;# 
   193     0417                     	;# 
   194     041C                     	;# 
   195     041D                     	;# 
   196     041E                     	;# 
   197     0791                     	;# 
   198     0792                     	;# 
   199     0793                     	;# 
   200     0794                     	;# 
   201     0795                     	;# 
   202     0798                     	;# 
   203     0799                     	;# 
   204     079A                     	;# 
   205     07A0                     	;# 
   206     07A1                     	;# 
   207     07A2                     	;# 
   208     07A3                     	;# 
   209     07A4                     	;# 
   210     07A5                     	;# 
   211     07A6                     	;# 
   212     07A7                     	;# 
   213     07A8                     	;# 
   214     07A9                     	;# 
   215     07AA                     	;# 
   216     07AB                     	;# 
   217     0FE4                     	;# 
   218     0FE5                     	;# 
   219     0FE6                     	;# 
   220     0FE7                     	;# 
   221     0FE8                     	;# 
   222     0FE9                     	;# 
   223     0FEA                     	;# 
   224     0FEB                     	;# 
   225     0FED                     	;# 
   226     0FEE                     	;# 
   227     0FEF                     	;# 
   228     0000                     	;# 
   229     0001                     	;# 
   230     0002                     	;# 
   231     0003                     	;# 
   232     0004                     	;# 
   233     0005                     	;# 
   234     0006                     	;# 
   235     0007                     	;# 
   236     0008                     	;# 
   237     0009                     	;# 
   238     000A                     	;# 
   239     000B                     	;# 
   240     000C                     	;# 
   241     000D                     	;# 
   242     000E                     	;# 
   243     000F                     	;# 
   244     0010                     	;# 
   245     0011                     	;# 
   246     0012                     	;# 
   247     0013                     	;# 
   248     0015                     	;# 
   249     0016                     	;# 
   250     0016                     	;# 
   251     0017                     	;# 
   252     0018                     	;# 
   253     0019                     	;# 
   254     001A                     	;# 
   255     001B                     	;# 
   256     001C                     	;# 
   257     001E                     	;# 
   258     001F                     	;# 
   259     008C                     	;# 
   260     008D                     	;# 
   261     008E                     	;# 
   262     008F                     	;# 
   263     0090                     	;# 
   264     0091                     	;# 
   265     0092                     	;# 
   266     0093                     	;# 
   267     0095                     	;# 
   268     0096                     	;# 
   269     0097                     	;# 
   270     0098                     	;# 
   271     0099                     	;# 
   272     009A                     	;# 
   273     009B                     	;# 
   274     009B                     	;# 
   275     009C                     	;# 
   276     009D                     	;# 
   277     009E                     	;# 
   278     010C                     	;# 
   279     010D                     	;# 
   280     010E                     	;# 
   281     010F                     	;# 
   282     0110                     	;# 
   283     0111                     	;# 
   284     0112                     	;# 
   285     0113                     	;# 
   286     0114                     	;# 
   287     0115                     	;# 
   288     0116                     	;# 
   289     0117                     	;# 
   290     0118                     	;# 
   291     0119                     	;# 
   292     011A                     	;# 
   293     011B                     	;# 
   294     011D                     	;# 
   295     018C                     	;# 
   296     018D                     	;# 
   297     018F                     	;# 
   298     0190                     	;# 
   299     0191                     	;# 
   300     0191                     	;# 
   301     0192                     	;# 
   302     0193                     	;# 
   303     0193                     	;# 
   304     0193                     	;# 
   305     0194                     	;# 
   306     0195                     	;# 
   307     0196                     	;# 
   308     0199                     	;# 
   309     019A                     	;# 
   310     019B                     	;# 
   311     019B                     	;# 
   312     019B                     	;# 
   313     019B                     	;# 
   314     019C                     	;# 
   315     019C                     	;# 
   316     019D                     	;# 
   317     019E                     	;# 
   318     019F                     	;# 
   319     020D                     	;# 
   320     0210                     	;# 
   321     0211                     	;# 
   322     0212                     	;# 
   323     0213                     	;# 
   324     0214                     	;# 
   325     0215                     	;# 
   326     0215                     	;# 
   327     0216                     	;# 
   328     0217                     	;# 
   329     0291                     	;# 
   330     0291                     	;# 
   331     0292                     	;# 
   332     0293                     	;# 
   333     0294                     	;# 
   334     0295                     	;# 
   335     0295                     	;# 
   336     0296                     	;# 
   337     0298                     	;# 
   338     0298                     	;# 
   339     0299                     	;# 
   340     029A                     	;# 
   341     029B                     	;# 
   342     029C                     	;# 
   343     029C                     	;# 
   344     029D                     	;# 
   345     029E                     	;# 
   346     029F                     	;# 
   347     0311                     	;# 
   348     0311                     	;# 
   349     0312                     	;# 
   350     0313                     	;# 
   351     0314                     	;# 
   352     0315                     	;# 
   353     0315                     	;# 
   354     0316                     	;# 
   355     0318                     	;# 
   356     0318                     	;# 
   357     0319                     	;# 
   358     031A                     	;# 
   359     031C                     	;# 
   360     031C                     	;# 
   361     031D                     	;# 
   362     031E                     	;# 
   363     0394                     	;# 
   364     0395                     	;# 
   365     0396                     	;# 
   366     0415                     	;# 
   367     0416                     	;# 
   368     0417                     	;# 
   369     041C                     	;# 
   370     041D                     	;# 
   371     041E                     	;# 
   372     0791                     	;# 
   373     0792                     	;# 
   374     0793                     	;# 
   375     0794                     	;# 
   376     0795                     	;# 
   377     0798                     	;# 
   378     0799                     	;# 
   379     079A                     	;# 
   380     07A0                     	;# 
   381     07A1                     	;# 
   382     07A2                     	;# 
   383     07A3                     	;# 
   384     07A4                     	;# 
   385     07A5                     	;# 
   386     07A6                     	;# 
   387     07A7                     	;# 
   388     07A8                     	;# 
   389     07A9                     	;# 
   390     07AA                     	;# 
   391     07AB                     	;# 
   392     0FE4                     	;# 
   393     0FE5                     	;# 
   394     0FE6                     	;# 
   395     0FE7                     	;# 
   396     0FE8                     	;# 
   397     0FE9                     	;# 
   398     0FEA                     	;# 
   399     0FEB                     	;# 
   400     0FED                     	;# 
   401     0FEE                     	;# 
   402     0FEF                     	;# 
   403     0000                     	;# 
   404     0001                     	;# 
   405     0002                     	;# 
   406     0003                     	;# 
   407     0004                     	;# 
   408     0005                     	;# 
   409     0006                     	;# 
   410     0007                     	;# 
   411     0008                     	;# 
   412     0009                     	;# 
   413     000A                     	;# 
   414     000B                     	;# 
   415     000C                     	;# 
   416     000D                     	;# 
   417     000E                     	;# 
   418     000F                     	;# 
   419     0010                     	;# 
   420     0011                     	;# 
   421     0012                     	;# 
   422     0013                     	;# 
   423     0015                     	;# 
   424     0016                     	;# 
   425     0016                     	;# 
   426     0017                     	;# 
   427     0018                     	;# 
   428     0019                     	;# 
   429     001A                     	;# 
   430     001B                     	;# 
   431     001C                     	;# 
   432     001E                     	;# 
   433     001F                     	;# 
   434     008C                     	;# 
   435     008D                     	;# 
   436     008E                     	;# 
   437     008F                     	;# 
   438     0090                     	;# 
   439     0091                     	;# 
   440     0092                     	;# 
   441     0093                     	;# 
   442     0095                     	;# 
   443     0096                     	;# 
   444     0097                     	;# 
   445     0098                     	;# 
   446     0099                     	;# 
   447     009A                     	;# 
   448     009B                     	;# 
   449     009B                     	;# 
   450     009C                     	;# 
   451     009D                     	;# 
   452     009E                     	;# 
   453     010C                     	;# 
   454     010D                     	;# 
   455     010E                     	;# 
   456     010F                     	;# 
   457     0110                     	;# 
   458     0111                     	;# 
   459     0112                     	;# 
   460     0113                     	;# 
   461     0114                     	;# 
   462     0115                     	;# 
   463     0116                     	;# 
   464     0117                     	;# 
   465     0118                     	;# 
   466     0119                     	;# 
   467     011A                     	;# 
   468     011B                     	;# 
   469     011D                     	;# 
   470     018C                     	;# 
   471     018D                     	;# 
   472     018F                     	;# 
   473     0190                     	;# 
   474     0191                     	;# 
   475     0191                     	;# 
   476     0192                     	;# 
   477     0193                     	;# 
   478     0193                     	;# 
   479     0193                     	;# 
   480     0194                     	;# 
   481     0195                     	;# 
   482     0196                     	;# 
   483     0199                     	;# 
   484     019A                     	;# 
   485     019B                     	;# 
   486     019B                     	;# 
   487     019B                     	;# 
   488     019B                     	;# 
   489     019C                     	;# 
   490     019C                     	;# 
   491     019D                     	;# 
   492     019E                     	;# 
   493     019F                     	;# 
   494     020D                     	;# 
   495     0210                     	;# 
   496     0211                     	;# 
   497     0212                     	;# 
   498     0213                     	;# 
   499     0214                     	;# 
   500     0215                     	;# 
   501     0215                     	;# 
   502     0216                     	;# 
   503     0217                     	;# 
   504     0291                     	;# 
   505     0291                     	;# 
   506     0292                     	;# 
   507     0293                     	;# 
   508     0294                     	;# 
   509     0295                     	;# 
   510     0295                     	;# 
   511     0296                     	;# 
   512     0298                     	;# 
   513     0298                     	;# 
   514     0299                     	;# 
   515     029A                     	;# 
   516     029B                     	;# 
   517     029C                     	;# 
   518     029C                     	;# 
   519     029D                     	;# 
   520     029E                     	;# 
   521     029F                     	;# 
   522     0311                     	;# 
   523     0311                     	;# 
   524     0312                     	;# 
   525     0313                     	;# 
   526     0314                     	;# 
   527     0315                     	;# 
   528     0315                     	;# 
   529     0316                     	;# 
   530     0318                     	;# 
   531     0318                     	;# 
   532     0319                     	;# 
   533     031A                     	;# 
   534     031C                     	;# 
   535     031C                     	;# 
   536     031D                     	;# 
   537     031E                     	;# 
   538     0394                     	;# 
   539     0395                     	;# 
   540     0396                     	;# 
   541     0415                     	;# 
   542     0416                     	;# 
   543     0417                     	;# 
   544     041C                     	;# 
   545     041D                     	;# 
   546     041E                     	;# 
   547     0791                     	;# 
   548     0792                     	;# 
   549     0793                     	;# 
   550     0794                     	;# 
   551     0795                     	;# 
   552     0798                     	;# 
   553     0799                     	;# 
   554     079A                     	;# 
   555     07A0                     	;# 
   556     07A1                     	;# 
   557     07A2                     	;# 
   558     07A3                     	;# 
   559     07A4                     	;# 
   560     07A5                     	;# 
   561     07A6                     	;# 
   562     07A7                     	;# 
   563     07A8                     	;# 
   564     07A9                     	;# 
   565     07AA                     	;# 
   566     07AB                     	;# 
   567     0FE4                     	;# 
   568     0FE5                     	;# 
   569     0FE6                     	;# 
   570     0FE7                     	;# 
   571     0FE8                     	;# 
   572     0FE9                     	;# 
   573     0FEA                     	;# 
   574     0FEB                     	;# 
   575     0FED                     	;# 
   576     0FEE                     	;# 
   577     0FEF                     	;# 
   578     0000                     	;# 
   579     0001                     	;# 
   580     0002                     	;# 
   581     0003                     	;# 
   582     0004                     	;# 
   583     0005                     	;# 
   584     0006                     	;# 
   585     0007                     	;# 
   586     0008                     	;# 
   587     0009                     	;# 
   588     000A                     	;# 
   589     000B                     	;# 
   590     000C                     	;# 
   591     000D                     	;# 
   592     000E                     	;# 
   593     000F                     	;# 
   594     0010                     	;# 
   595     0011                     	;# 
   596     0012                     	;# 
   597     0013                     	;# 
   598     0015                     	;# 
   599     0016                     	;# 
   600     0016                     	;# 
   601     0017                     	;# 
   602     0018                     	;# 
   603     0019                     	;# 
   604     001A                     	;# 
   605     001B                     	;# 
   606     001C                     	;# 
   607     001E                     	;# 
   608     001F                     	;# 
   609     008C                     	;# 
   610     008D                     	;# 
   611     008E                     	;# 
   612     008F                     	;# 
   613     0090                     	;# 
   614     0091                     	;# 
   615     0092                     	;# 
   616     0093                     	;# 
   617     0095                     	;# 
   618     0096                     	;# 
   619     0097                     	;# 
   620     0098                     	;# 
   621     0099                     	;# 
   622     009A                     	;# 
   623     009B                     	;# 
   624     009B                     	;# 
   625     009C                     	;# 
   626     009D                     	;# 
   627     009E                     	;# 
   628     010C                     	;# 
   629     010D                     	;# 
   630     010E                     	;# 
   631     010F                     	;# 
   632     0110                     	;# 
   633     0111                     	;# 
   634     0112                     	;# 
   635     0113                     	;# 
   636     0114                     	;# 
   637     0115                     	;# 
   638     0116                     	;# 
   639     0117                     	;# 
   640     0118                     	;# 
   641     0119                     	;# 
   642     011A                     	;# 
   643     011B                     	;# 
   644     011D                     	;# 
   645     018C                     	;# 
   646     018D                     	;# 
   647     018F                     	;# 
   648     0190                     	;# 
   649     0191                     	;# 
   650     0191                     	;# 
   651     0192                     	;# 
   652     0193                     	;# 
   653     0193                     	;# 
   654     0193                     	;# 
   655     0194                     	;# 
   656     0195                     	;# 
   657     0196                     	;# 
   658     0199                     	;# 
   659     019A                     	;# 
   660     019B                     	;# 
   661     019B                     	;# 
   662     019B                     	;# 
   663     019B                     	;# 
   664     019C                     	;# 
   665     019C                     	;# 
   666     019D                     	;# 
   667     019E                     	;# 
   668     019F                     	;# 
   669     020D                     	;# 
   670     0210                     	;# 
   671     0211                     	;# 
   672     0212                     	;# 
   673     0213                     	;# 
   674     0214                     	;# 
   675     0215                     	;# 
   676     0215                     	;# 
   677     0216                     	;# 
   678     0217                     	;# 
   679     0291                     	;# 
   680     0291                     	;# 
   681     0292                     	;# 
   682     0293                     	;# 
   683     0294                     	;# 
   684     0295                     	;# 
   685     0295                     	;# 
   686     0296                     	;# 
   687     0298                     	;# 
   688     0298                     	;# 
   689     0299                     	;# 
   690     029A                     	;# 
   691     029B                     	;# 
   692     029C                     	;# 
   693     029C                     	;# 
   694     029D                     	;# 
   695     029E                     	;# 
   696     029F                     	;# 
   697     0311                     	;# 
   698     0311                     	;# 
   699     0312                     	;# 
   700     0313                     	;# 
   701     0314                     	;# 
   702     0315                     	;# 
   703     0315                     	;# 
   704     0316                     	;# 
   705     0318                     	;# 
   706     0318                     	;# 
   707     0319                     	;# 
   708     031A                     	;# 
   709     031C                     	;# 
   710     031C                     	;# 
   711     031D                     	;# 
   712     031E                     	;# 
   713     0394                     	;# 
   714     0395                     	;# 
   715     0396                     	;# 
   716     0415                     	;# 
   717     0416                     	;# 
   718     0417                     	;# 
   719     041C                     	;# 
   720     041D                     	;# 
   721     041E                     	;# 
   722     0791                     	;# 
   723     0792                     	;# 
   724     0793                     	;# 
   725     0794                     	;# 
   726     0795                     	;# 
   727     0798                     	;# 
   728     0799                     	;# 
   729     079A                     	;# 
   730     07A0                     	;# 
   731     07A1                     	;# 
   732     07A2                     	;# 
   733     07A3                     	;# 
   734     07A4                     	;# 
   735     07A5                     	;# 
   736     07A6                     	;# 
   737     07A7                     	;# 
   738     07A8                     	;# 
   739     07A9                     	;# 
   740     07AA                     	;# 
   741     07AB                     	;# 
   742     0FE4                     	;# 
   743     0FE5                     	;# 
   744     0FE6                     	;# 
   745     0FE7                     	;# 
   746     0FE8                     	;# 
   747     0FE9                     	;# 
   748     0FEA                     	;# 
   749     0FEB                     	;# 
   750     0FED                     	;# 
   751     0FEE                     	;# 
   752     0FEF                     	;# 
   753     008F                     _TRISDbits	set	143
   754     010F                     _LATDbits	set	271
   755                           
   756                           	psect	stringtext1
   757     0800                     __pstringtext1:
   758     0800                     STR_1:
   759     0800  3430               	retlw	48	;'0'
   760     0801  3431               	retlw	49	;'1'
   761     0802  3432               	retlw	50	;'2'
   762     0803  3433               	retlw	51	;'3'
   763     0804  3434               	retlw	52	;'4'
   764     0805  3435               	retlw	53	;'5'
   765     0806  3436               	retlw	54	;'6'
   766     0807  3437               	retlw	55	;'7'
   767     0808  3438               	retlw	56	;'8'
   768     0809  3439               	retlw	57	;'9'
   769     080A  3430               	retlw	48	;'0'
   770     080B  3431               	retlw	49	;'1'
   771     080C  3432               	retlw	50	;'2'
   772     080D  3433               	retlw	51	;'3'
   773     080E  3434               	retlw	52	;'4'
   774     080F  3435               	retlw	53	;'5'
   775     0810  3436               	retlw	54	;'6'
   776     0811  3437               	retlw	55	;'7'
   777     0812  3438               	retlw	56	;'8'
   778     0813  3439               	retlw	57	;'9'
   779     0814  3400               	retlw	0
   780                           
   781                           	psect	stringtext2
   782     0000                     __pstringtext2:
   783                           
   784                           	psect	cinit
   785     07FD                     start_initialization:	
   786                           ; #config settings
   787                           
   788     07FD                     __initialization:
   789     07FD                     end_of_initialization:	
   790                           ;End of C runtime variable initialization code
   791                           
   792     07FD                     __end_of__initialization:
   793     07FD  0020               	movlb	0
   794     07FE  3187  2F70         	ljmp	_main	;jump to C main() function
   795                           
   796                           	psect	cstackCOMMON
   797     0070                     __pcstackCOMMON:
   798     0070                     ?_LCD_Init:
   799     0070                     ?_LCD_Cmd:	
   800                           ; 1 bytes @ 0x0
   801                           
   802     0070                     ?_main:	
   803                           ; 1 bytes @ 0x0
   804                           
   805     0070                     ?_Load_Cmd:	
   806                           ; 1 bytes @ 0x0
   807                           
   808     0070                     ??_Load_Cmd:	
   809                           ; 1 bytes @ 0x0
   810                           
   811     0070                     ?_Load_Data:	
   812                           ; 1 bytes @ 0x0
   813                           
   814     0070                     ??_Load_Data:	
   815                           ; 1 bytes @ 0x0
   816                           
   817     0070                     ?_LCD_Write_Cp:	
   818                           ; 1 bytes @ 0x0
   819                           
   820     0070                     Load_Cmd@cmd:	
   821                           ; 1 bytes @ 0x0
   822                           
   823     0070                     Load_Data@data:	
   824                           ; 1 bytes @ 0x0
   825                           
   826                           
   827                           ; 1 bytes @ 0x0
   828     0070                     	ds	1
   829     0071                     ??_LCD_Init:
   830     0071                     ??_LCD_Cmd:	
   831                           ; 1 bytes @ 0x1
   832                           
   833     0071                     ??_LCD_Write_Cp:	
   834                           ; 1 bytes @ 0x1
   835                           
   836                           
   837                           ; 1 bytes @ 0x1
   838     0071                     	ds	1
   839     0072                     LCD_Cmd@NibbleH:
   840     0072                     LCD_Write_Cp@NibbleH:	
   841                           ; 1 bytes @ 0x2
   842                           
   843                           
   844                           ; 1 bytes @ 0x2
   845     0072                     	ds	1
   846     0073                     LCD_Cmd@NibbleL:
   847     0073                     LCD_Write_Cp@NibbleL:	
   848                           ; 1 bytes @ 0x3
   849                           
   850                           
   851                           ; 1 bytes @ 0x3
   852     0073                     	ds	1
   853     0074                     LCD_Cmd@cmd:
   854     0074                     LCD_Write_Cp@letra:	
   855                           ; 1 bytes @ 0x4
   856                           
   857                           
   858                           ; 1 bytes @ 0x4
   859     0074                     	ds	1
   860     0075                     ?_LCD_Write_Text_Cp:
   861     0075                     LCD_Write_Text_Cp@text:	
   862                           ; 1 bytes @ 0x5
   863                           
   864                           
   865                           ; 2 bytes @ 0x5
   866     0075                     	ds	2
   867     0077                     ??_LCD_Write_Text_Cp:
   868                           
   869                           ; 1 bytes @ 0x7
   870     0077                     	ds	1
   871     0078                     ??_main:
   872                           
   873                           ; 1 bytes @ 0x8
   874     0078                     	ds	2
   875                           
   876                           	psect	maintext
   877     0770                     __pmaintext:	
   878 ;;
   879 ;;Main: autosize = 0, tempsize = 2, incstack = 0, save=0
   880 ;;
   881 ;; *************** function _main *****************
   882 ;; Defined at:
   883 ;;		line 5 in file "main.c"
   884 ;; Parameters:    Size  Location     Type
   885 ;;		None
   886 ;; Auto vars:     Size  Location     Type
   887 ;;		None
   888 ;; Return value:  Size  Location     Type
   889 ;;                  1    wreg      void 
   890 ;; Registers used:
   891 ;;		wreg, fsr0l, fsr0h, status,2, status,0, pclath, cstack
   892 ;; Tracked objects:
   893 ;;		On entry : B1F/0
   894 ;;		On exit  : 0/0
   895 ;;		Unchanged: 0/0
   896 ;; Data sizes:     COMMON   BANK0   BANK1   BANK2   BANK3   BANK4   BANK5   BANK6   BANK7   BANK8   BANK9  BANK10  BANK1
      +1  BANK12
   897 ;;      Params:         0       0       0       0       0       0       0       0       0       0       0       0       
      +0       0
   898 ;;      Locals:         0       0       0       0       0       0       0       0       0       0       0       0       
      +0       0
   899 ;;      Temps:          2       0       0       0       0       0       0       0       0       0       0       0       
      +0       0
   900 ;;      Totals:         2       0       0       0       0       0       0       0       0       0       0       0       
      +0       0
   901 ;;Total ram usage:        2 bytes
   902 ;; Hardware stack levels required when called: 3
   903 ;; This function calls:
   904 ;;		_LCD_Cmd
   905 ;;		_LCD_Init
   906 ;;		_LCD_Write_Text_Cp
   907 ;; This function is called by:
   908 ;;		Startup code after reset
   909 ;; This function uses a non-reentrant model
   910 ;;
   911                           
   912     0770                     _main:	
   913                           ;psect for function _main
   914                           
   915     0770                     l835:	
   916                           ;incstack = 0
   917                           ; Regs used in _main: [wreg-fsr0h+status,2+status,0+pclath+cstack]
   918                           
   919                           
   920                           ;main.c: 7:     LCD_Init();
   921     0770  3187  27AD  3187   	fcall	_LCD_Init
   922     0773                     l837:
   923                           
   924                           ;main.c: 9:     LCD_Write_Text_Cp("01234567890123456789");
   925     0773  3000               	movlw	low (STR_1| (0+32768))
   926     0774  00F5               	movwf	LCD_Write_Text_Cp@text
   927     0775  3088               	movlw	high (STR_1| (0+32768))
   928     0776  00F6               	movwf	LCD_Write_Text_Cp@text+1
   929     0777  3186  26EB  3187   	fcall	_LCD_Write_Text_Cp
   930     077A                     l839:
   931                           
   932                           ;main.c: 10:     _delay((unsigned long)((500)*(20000000UL/4000.0)));
   933     077A  300D               	movlw	13
   934     077B  00F9               	movwf	??_main+1
   935     077C  30AF               	movlw	175
   936     077D  00F8               	movwf	??_main
   937     077E  30B6               	movlw	182
   938     077F                     u147:
   939     077F  0B89               	decfsz	9,f
   940     0780  2F7F               	goto	u147
   941     0781  0BF8               	decfsz	??_main,f
   942     0782  2F7F               	goto	u147
   943     0783  0BF9               	decfsz	??_main+1,f
   944     0784  2F7F               	goto	u147
   945     0785  3200               	nop2
   946     0786                     l841:
   947                           
   948                           ;main.c: 12:     LCD_Cmd(12);
   949     0786  300C               	movlw	12
   950     0787  3187  2702  3187   	fcall	_LCD_Cmd
   951     078A                     l843:
   952                           
   953                           ;main.c: 13:     _delay((unsigned long)((500)*(20000000UL/4000.0)));
   954     078A  300D               	movlw	13
   955     078B  00F9               	movwf	??_main+1
   956     078C  30AF               	movlw	175
   957     078D  00F8               	movwf	??_main
   958     078E  30B6               	movlw	182
   959     078F                     u157:
   960     078F  0B89               	decfsz	9,f
   961     0790  2F8F               	goto	u157
   962     0791  0BF8               	decfsz	??_main,f
   963     0792  2F8F               	goto	u157
   964     0793  0BF9               	decfsz	??_main+1,f
   965     0794  2F8F               	goto	u157
   966     0795  3200               	nop2
   967     0796                     l845:
   968                           
   969                           ;main.c: 14:     LCD_Cmd(8);
   970     0796  3008               	movlw	8
   971     0797  3187  2702  3187   	fcall	_LCD_Cmd
   972     079A                     l847:
   973                           
   974                           ;main.c: 15:     _delay((unsigned long)((500)*(20000000UL/4000.0)));
   975     079A  300D               	movlw	13
   976     079B  00F9               	movwf	??_main+1
   977     079C  30AF               	movlw	175
   978     079D  00F8               	movwf	??_main
   979     079E  30B6               	movlw	182
   980     079F                     u167:
   981     079F  0B89               	decfsz	9,f
   982     07A0  2F9F               	goto	u167
   983     07A1  0BF8               	decfsz	??_main,f
   984     07A2  2F9F               	goto	u167
   985     07A3  0BF9               	decfsz	??_main+1,f
   986     07A4  2F9F               	goto	u167
   987     07A5  3200               	nop2
   988     07A6                     l849:
   989                           
   990                           ;main.c: 16:     LCD_Cmd(15);
   991     07A6  300F               	movlw	15
   992     07A7  3187  2702  3187   	fcall	_LCD_Cmd
   993     07AA                     l13:	
   994                           ;main.c: 23:     while(1){
   995                           
   996     07AA                     l14:	
   997                           ;main.c: 26:     }
   998                           
   999     07AA  2FAA               	goto	l13
  1000     07AB  3180  2802         	ljmp	start
  1001     07AD                     __end_of_main:
  1002                           
  1003                           	psect	text1
  1004     06EB                     __ptext1:	
  1005 ;; *************** function _LCD_Write_Text_Cp *****************
  1006 ;; Defined at:
  1007 ;;		line 81 in file "LCD_LIB.c"
  1008 ;; Parameters:    Size  Location     Type
  1009 ;;  text            2    5[COMMON] PTR unsigned char 
  1010 ;;		 -> STR_1(21), 
  1011 ;; Auto vars:     Size  Location     Type
  1012 ;;		None
  1013 ;; Return value:  Size  Location     Type
  1014 ;;                  1    wreg      void 
  1015 ;; Registers used:
  1016 ;;		wreg, fsr0l, fsr0h, status,2, status,0, pclath, cstack
  1017 ;; Tracked objects:
  1018 ;;		On entry : 0/0
  1019 ;;		On exit  : 0/0
  1020 ;;		Unchanged: 0/0
  1021 ;; Data sizes:     COMMON   BANK0   BANK1   BANK2   BANK3   BANK4   BANK5   BANK6   BANK7   BANK8   BANK9  BANK10  BANK1
      +1  BANK12
  1022 ;;      Params:         2       0       0       0       0       0       0       0       0       0       0       0       
      +0       0
  1023 ;;      Locals:         0       0       0       0       0       0       0       0       0       0       0       0       
      +0       0
  1024 ;;      Temps:          1       0       0       0       0       0       0       0       0       0       0       0       
      +0       0
  1025 ;;      Totals:         3       0       0       0       0       0       0       0       0       0       0       0       
      +0       0
  1026 ;;Total ram usage:        3 bytes
  1027 ;; Hardware stack levels used: 1
  1028 ;; Hardware stack levels required when called: 2
  1029 ;; This function calls:
  1030 ;;		_LCD_Write_Cp
  1031 ;; This function is called by:
  1032 ;;		_main
  1033 ;; This function uses a non-reentrant model
  1034 ;;
  1035                           
  1036     06EB                     _LCD_Write_Text_Cp:	
  1037                           ;psect for function _LCD_Write_Text_Cp
  1038                           
  1039     06EB                     l827:	
  1040                           ;incstack = 0
  1041                           ; Regs used in _LCD_Write_Text_Cp: [wreg-fsr0h+status,2+status,0+pclath+cstack]
  1042                           
  1043                           
  1044                           ;LCD_LIB.c: 83:     while(*text){
  1045     06EB  2EF8               	goto	l833
  1046     06EC                     l829:
  1047                           
  1048                           ;LCD_LIB.c: 84:         LCD_Write_Cp(*text);
  1049     06EC  0875               	movf	LCD_Write_Text_Cp@text,w
  1050     06ED  0084               	movwf	4
  1051     06EE  0876               	movf	LCD_Write_Text_Cp@text+1,w
  1052     06EF  0085               	movwf	5
  1053     06F0  0800               	movf	0,w	;code access
  1054     06F1  3186  26D6  3186   	fcall	_LCD_Write_Cp
  1055     06F4                     l831:
  1056                           
  1057                           ;LCD_LIB.c: 85:         text++;
  1058     06F4  3001               	movlw	1
  1059     06F5  07F5               	addwf	LCD_Write_Text_Cp@text,f
  1060     06F6  3000               	movlw	0
  1061     06F7  3DF6               	addwfc	LCD_Write_Text_Cp@text+1,f
  1062     06F8                     l833:
  1063                           
  1064                           ;LCD_LIB.c: 83:     while(*text){
  1065     06F8  0875               	movf	LCD_Write_Text_Cp@text,w
  1066     06F9  0084               	movwf	4
  1067     06FA  0876               	movf	LCD_Write_Text_Cp@text+1,w
  1068     06FB  0085               	movwf	5
  1069     06FC  0012               	moviw fsr0++
  1070     06FD  1D03               	btfss	3,2
  1071     06FE  2F00               	goto	u131
  1072     06FF  2F01               	goto	u130
  1073     0700                     u131:
  1074     0700  2EEC               	goto	l829
  1075     0701                     u130:
  1076     0701                     l59:
  1077     0701  0008               	return
  1078     0702                     __end_of_LCD_Write_Text_Cp:
  1079                           
  1080                           	psect	text2
  1081     06D6                     __ptext2:	
  1082 ;; *************** function _LCD_Write_Cp *****************
  1083 ;; Defined at:
  1084 ;;		line 72 in file "LCD_LIB.c"
  1085 ;; Parameters:    Size  Location     Type
  1086 ;;  letra           1    wreg     unsigned char 
  1087 ;; Auto vars:     Size  Location     Type
  1088 ;;  letra           1    4[COMMON] unsigned char 
  1089 ;;  NibbleL         1    3[COMMON] unsigned char 
  1090 ;;  NibbleH         1    2[COMMON] unsigned char 
  1091 ;; Return value:  Size  Location     Type
  1092 ;;                  1    wreg      void 
  1093 ;; Registers used:
  1094 ;;		wreg, status,2, status,0, pclath, cstack
  1095 ;; Tracked objects:
  1096 ;;		On entry : 0/0
  1097 ;;		On exit  : 0/0
  1098 ;;		Unchanged: 0/0
  1099 ;; Data sizes:     COMMON   BANK0   BANK1   BANK2   BANK3   BANK4   BANK5   BANK6   BANK7   BANK8   BANK9  BANK10  BANK1
      +1  BANK12
  1100 ;;      Params:         0       0       0       0       0       0       0       0       0       0       0       0       
      +0       0
  1101 ;;      Locals:         3       0       0       0       0       0       0       0       0       0       0       0       
      +0       0
  1102 ;;      Temps:          1       0       0       0       0       0       0       0       0       0       0       0       
      +0       0
  1103 ;;      Totals:         4       0       0       0       0       0       0       0       0       0       0       0       
      +0       0
  1104 ;;Total ram usage:        4 bytes
  1105 ;; Hardware stack levels used: 1
  1106 ;; Hardware stack levels required when called: 1
  1107 ;; This function calls:
  1108 ;;		_Load_Data
  1109 ;; This function is called by:
  1110 ;;		_LCD_Write_Text_Cp
  1111 ;;		_LCD_Write
  1112 ;;		_LCD_Write_Text
  1113 ;; This function uses a non-reentrant model
  1114 ;;
  1115                           
  1116     06D6                     _LCD_Write_Cp:	
  1117                           ;psect for function _LCD_Write_Cp
  1118                           
  1119                           
  1120                           ;incstack = 0
  1121                           ; Regs used in _LCD_Write_Cp: [wreg+status,2+status,0+pclath+cstack]
  1122                           ;LCD_Write_Cp@letra stored from wreg
  1123     06D6  00F4               	movwf	LCD_Write_Cp@letra
  1124     06D7                     l725:
  1125                           
  1126                           ;LCD_LIB.c: 73:     char NibbleH, NibbleL;;LCD_LIB.c: 74:     NibbleH = letra>>4;
  1127     06D7  0874               	movf	LCD_Write_Cp@letra,w
  1128     06D8  00F1               	movwf	??_LCD_Write_Cp
  1129     06D9  3004               	movlw	4
  1130     06DA                     u95:
  1131     06DA  36F1               	lsrf	??_LCD_Write_Cp,f
  1132     06DB  0B89               	decfsz	9,f
  1133     06DC  2EDA               	goto	u95
  1134     06DD  0871               	movf	??_LCD_Write_Cp,w
  1135     06DE  00F2               	movwf	LCD_Write_Cp@NibbleH
  1136     06DF                     l727:
  1137                           
  1138                           ;LCD_LIB.c: 75:     NibbleL = letra & 0x0F;
  1139     06DF  0874               	movf	LCD_Write_Cp@letra,w
  1140     06E0  390F               	andlw	15
  1141     06E1  00F3               	movwf	LCD_Write_Cp@NibbleL
  1142     06E2                     l729:
  1143                           
  1144                           ;LCD_LIB.c: 76:     Load_Data(NibbleH);
  1145     06E2  0872               	movf	LCD_Write_Cp@NibbleH,w
  1146     06E3  3187  2747  3186   	fcall	_Load_Data
  1147     06E6                     l731:
  1148                           
  1149                           ;LCD_LIB.c: 77:     Load_Data(NibbleL);
  1150     06E6  0873               	movf	LCD_Write_Cp@NibbleL,w
  1151     06E7  3187  2747  3186   	fcall	_Load_Data
  1152     06EA                     l53:
  1153     06EA  0008               	return
  1154     06EB                     __end_of_LCD_Write_Cp:
  1155                           
  1156                           	psect	text3
  1157     0747                     __ptext3:	
  1158 ;; *************** function _Load_Data *****************
  1159 ;; Defined at:
  1160 ;;		line 20 in file "LCD_LIB.c"
  1161 ;; Parameters:    Size  Location     Type
  1162 ;;  data            1    wreg     unsigned char 
  1163 ;; Auto vars:     Size  Location     Type
  1164 ;;  data            1    0[COMMON] unsigned char 
  1165 ;; Return value:  Size  Location     Type
  1166 ;;                  1    wreg      void 
  1167 ;; Registers used:
  1168 ;;		wreg
  1169 ;; Tracked objects:
  1170 ;;		On entry : 0/0
  1171 ;;		On exit  : 0/0
  1172 ;;		Unchanged: 0/0
  1173 ;; Data sizes:     COMMON   BANK0   BANK1   BANK2   BANK3   BANK4   BANK5   BANK6   BANK7   BANK8   BANK9  BANK10  BANK1
      +1  BANK12
  1174 ;;      Params:         0       0       0       0       0       0       0       0       0       0       0       0       
      +0       0
  1175 ;;      Locals:         1       0       0       0       0       0       0       0       0       0       0       0       
      +0       0
  1176 ;;      Temps:          0       0       0       0       0       0       0       0       0       0       0       0       
      +0       0
  1177 ;;      Totals:         1       0       0       0       0       0       0       0       0       0       0       0       
      +0       0
  1178 ;;Total ram usage:        1 bytes
  1179 ;; Hardware stack levels used: 1
  1180 ;; This function calls:
  1181 ;;		Nothing
  1182 ;; This function is called by:
  1183 ;;		_LCD_Write_Cp
  1184 ;; This function uses a non-reentrant model
  1185 ;;
  1186                           
  1187     0747                     _Load_Data:	
  1188                           ;psect for function _Load_Data
  1189                           
  1190                           
  1191                           ;incstack = 0
  1192                           ; Regs used in _Load_Data: [wreg]
  1193                           ;Load_Data@data stored from wreg
  1194     0747  00F0               	movwf	Load_Data@data
  1195     0748                     l685:
  1196                           
  1197                           ;LCD_LIB.c: 21:     LATDbits.LATD0 = 1;
  1198     0748  0022               	movlb	2	; select bank2
  1199     0749  140F               	bsf	15,0	;volatile
  1200     074A                     l687:
  1201                           
  1202                           ;LCD_LIB.c: 23:     if( (data & 1) == 0 ) LATDbits.LATD4 = 0; else LATDbits.LATD4 = 1;
  1203     074A  1870               	btfsc	Load_Data@data,0
  1204     074B  2F4D               	goto	u11
  1205     074C  2F4E               	goto	u10
  1206     074D                     u11:
  1207     074D  2F50               	goto	l36
  1208     074E                     u10:
  1209     074E                     l689:
  1210     074E  120F               	bcf	15,4	;volatile
  1211     074F  2F51               	goto	l691
  1212     0750                     l36:
  1213     0750  160F               	bsf	15,4	;volatile
  1214     0751                     l691:
  1215                           
  1216                           ;LCD_LIB.c: 24:     if( (data & 2) == 0 ) LATDbits.LATD5 = 0; else LATDbits.LATD5 = 1;
  1217     0751  18F0               	btfsc	Load_Data@data,1
  1218     0752  2F54               	goto	u21
  1219     0753  2F55               	goto	u20
  1220     0754                     u21:
  1221     0754  2F57               	goto	l38
  1222     0755                     u20:
  1223     0755                     l693:
  1224     0755  128F               	bcf	15,5	;volatile
  1225     0756  2F58               	goto	l695
  1226     0757                     l38:
  1227     0757  168F               	bsf	15,5	;volatile
  1228     0758                     l695:
  1229                           
  1230                           ;LCD_LIB.c: 25:     if( (data & 4) == 0 ) LATDbits.LATD6 = 0; else LATDbits.LATD6 = 1;
  1231     0758  1970               	btfsc	Load_Data@data,2
  1232     0759  2F5B               	goto	u31
  1233     075A  2F5C               	goto	u30
  1234     075B                     u31:
  1235     075B  2F5E               	goto	l40
  1236     075C                     u30:
  1237     075C                     l697:
  1238     075C  130F               	bcf	15,6	;volatile
  1239     075D  2F5F               	goto	l699
  1240     075E                     l40:
  1241     075E  170F               	bsf	15,6	;volatile
  1242     075F                     l699:
  1243                           
  1244                           ;LCD_LIB.c: 26:     if( (data & 8) == 0 ) LATDbits.LATD7 = 0; else LATDbits.LATD7 = 1;
  1245     075F  19F0               	btfsc	Load_Data@data,3
  1246     0760  2F62               	goto	u41
  1247     0761  2F63               	goto	u40
  1248     0762                     u41:
  1249     0762  2F65               	goto	l42
  1250     0763                     u40:
  1251     0763                     l701:
  1252     0763  138F               	bcf	15,7	;volatile
  1253     0764  2F66               	goto	l43
  1254     0765                     l42:
  1255     0765  178F               	bsf	15,7	;volatile
  1256     0766                     l43:
  1257                           
  1258                           ;LCD_LIB.c: 28:     LATDbits.LATD1 = 0;
  1259     0766  108F               	bcf	15,1	;volatile
  1260                           
  1261                           ;LCD_LIB.c: 29:     LATDbits.LATD1 = 1;
  1262     0767  148F               	bsf	15,1	;volatile
  1263                           
  1264                           ;LCD_LIB.c: 30:     LATDbits.LATD1 = 0;
  1265     0768  108F               	bcf	15,1	;volatile
  1266     0769                     l703:
  1267                           
  1268                           ;LCD_LIB.c: 32:     _delay((unsigned long)((300)*(20000000UL/4000000.0)));
  1269     0769  30D6               	movlw	214
  1270     076A                     u177:
  1271     076A  3200               	nop2
  1272     076B  3200               	nop2
  1273     076C  0B89               	decfsz	9,f
  1274     076D  2F6A               	goto	u177
  1275     076E  3200               	nop2
  1276     076F                     l44:
  1277     076F  0008               	return
  1278     0770                     __end_of_Load_Data:
  1279                           
  1280                           	psect	text4
  1281     07AD                     __ptext4:	
  1282 ;; *************** function _LCD_Init *****************
  1283 ;; Defined at:
  1284 ;;		line 37 in file "LCD_LIB.c"
  1285 ;; Parameters:    Size  Location     Type
  1286 ;;		None
  1287 ;; Auto vars:     Size  Location     Type
  1288 ;;		None
  1289 ;; Return value:  Size  Location     Type
  1290 ;;                  1    wreg      void 
  1291 ;; Registers used:
  1292 ;;		wreg, status,2, status,0, pclath, cstack
  1293 ;; Tracked objects:
  1294 ;;		On entry : 0/0
  1295 ;;		On exit  : 0/0
  1296 ;;		Unchanged: 0/0
  1297 ;; Data sizes:     COMMON   BANK0   BANK1   BANK2   BANK3   BANK4   BANK5   BANK6   BANK7   BANK8   BANK9  BANK10  BANK1
      +1  BANK12
  1298 ;;      Params:         0       0       0       0       0       0       0       0       0       0       0       0       
      +0       0
  1299 ;;      Locals:         0       0       0       0       0       0       0       0       0       0       0       0       
      +0       0
  1300 ;;      Temps:          1       0       0       0       0       0       0       0       0       0       0       0       
      +0       0
  1301 ;;      Totals:         1       0       0       0       0       0       0       0       0       0       0       0       
      +0       0
  1302 ;;Total ram usage:        1 bytes
  1303 ;; Hardware stack levels used: 1
  1304 ;; Hardware stack levels required when called: 1
  1305 ;; This function calls:
  1306 ;;		_Load_Cmd
  1307 ;; This function is called by:
  1308 ;;		_main
  1309 ;; This function uses a non-reentrant model
  1310 ;;
  1311                           
  1312     07AD                     _LCD_Init:	
  1313                           ;psect for function _LCD_Init
  1314                           
  1315     07AD                     l733:	
  1316                           ;incstack = 0
  1317                           ; Regs used in _LCD_Init: [wreg+status,2+status,0+pclath+cstack]
  1318                           
  1319                           
  1320                           ;LCD_LIB.c: 39:     TRISDbits.TRISD0 = 0; TRISDbits.TRISD1 = 0; TRISDbits.TRISD4 = 0;
  1321     07AD  0021               	movlb	1	; select bank1
  1322     07AE  100F               	bcf	15,0	;volatile
  1323     07AF  108F               	bcf	15,1	;volatile
  1324     07B0  120F               	bcf	15,4	;volatile
  1325                           
  1326                           ;LCD_LIB.c: 40:     TRISDbits.TRISD5 = 0; TRISDbits.TRISD6 = 0; TRISDbits.TRISD7 = 0;
  1327     07B1  128F               	bcf	15,5	;volatile
  1328     07B2  130F               	bcf	15,6	;volatile
  1329     07B3  138F               	bcf	15,7	;volatile
  1330                           
  1331                           ;LCD_LIB.c: 42:     LATDbits.LATD1 = 0; LATDbits.LATD4 = 0; LATDbits.LATD5 = 0;
  1332     07B4  0022               	movlb	2	; select bank2
  1333     07B5  108F               	bcf	15,1	;volatile
  1334     07B6  120F               	bcf	15,4	;volatile
  1335     07B7  128F               	bcf	15,5	;volatile
  1336                           
  1337                           ;LCD_LIB.c: 43:     LATDbits.LATD6 = 0; LATDbits.LATD7 = 0;
  1338     07B8  130F               	bcf	15,6	;volatile
  1339     07B9  138F               	bcf	15,7	;volatile
  1340     07BA                     l735:
  1341                           
  1342                           ;LCD_LIB.c: 45:     _delay((unsigned long)((15)*(20000000UL/4000.0)));
  1343     07BA  3062               	movlw	98
  1344     07BB  00F1               	movwf	??_LCD_Init
  1345     07BC  3066               	movlw	102
  1346     07BD                     u187:
  1347     07BD  0B89               	decfsz	9,f
  1348     07BE  2FBD               	goto	u187
  1349     07BF  0BF1               	decfsz	??_LCD_Init,f
  1350     07C0  2FBD               	goto	u187
  1351     07C1                     l737:
  1352                           
  1353                           ;LCD_LIB.c: 46:     Load_Cmd(0x03);
  1354     07C1  3003               	movlw	3
  1355     07C2  3187  271E  3187   	fcall	_Load_Cmd
  1356     07C5                     l739:
  1357                           
  1358                           ;LCD_LIB.c: 47:     _delay((unsigned long)((5)*(20000000UL/4000.0)));
  1359     07C5  3021               	movlw	33
  1360     07C6  00F1               	movwf	??_LCD_Init
  1361     07C7  3076               	movlw	118
  1362     07C8                     u197:
  1363     07C8  0B89               	decfsz	9,f
  1364     07C9  2FC8               	goto	u197
  1365     07CA  0BF1               	decfsz	??_LCD_Init,f
  1366     07CB  2FC8               	goto	u197
  1367     07CC  3200               	nop2
  1368                           
  1369                           ;LCD_LIB.c: 48:     Load_Cmd(0x03);
  1370     07CD  3003               	movlw	3
  1371     07CE  3187  271E  3187   	fcall	_Load_Cmd
  1372     07D1                     l741:
  1373                           
  1374                           ;LCD_LIB.c: 49:     _delay((unsigned long)((100)*(20000000UL/4000000.0)));
  1375     07D1  30A6               	movlw	166
  1376     07D2                     u207:
  1377     07D2  0B89               	decfsz	9,f
  1378     07D3  2FD2               	goto	u207
  1379     07D4  3200               	nop2
  1380     07D5                     l743:
  1381                           
  1382                           ;LCD_LIB.c: 50:     Load_Cmd(0x03);
  1383     07D5  3003               	movlw	3
  1384     07D6  3187  271E  3187   	fcall	_Load_Cmd
  1385     07D9                     l745:
  1386                           
  1387                           ;LCD_LIB.c: 51:     Load_Cmd(0x02);
  1388     07D9  3002               	movlw	2
  1389     07DA  3187  271E  3187   	fcall	_Load_Cmd
  1390     07DD                     l747:
  1391                           
  1392                           ;LCD_LIB.c: 53:     Load_Cmd(0x02);
  1393     07DD  3002               	movlw	2
  1394     07DE  3187  271E  3187   	fcall	_Load_Cmd
  1395     07E1                     l749:
  1396                           
  1397                           ;LCD_LIB.c: 54:     Load_Cmd(0x08);
  1398     07E1  3008               	movlw	8
  1399     07E2  3187  271E  3187   	fcall	_Load_Cmd
  1400     07E5                     l751:
  1401                           
  1402                           ;LCD_LIB.c: 56:     Load_Cmd(0x00);
  1403     07E5  3000               	movlw	0
  1404     07E6  3187  271E  3187   	fcall	_Load_Cmd
  1405     07E9                     l753:
  1406                           
  1407                           ;LCD_LIB.c: 57:     Load_Cmd(0x0F);
  1408     07E9  300F               	movlw	15
  1409     07EA  3187  271E  3187   	fcall	_Load_Cmd
  1410     07ED                     l755:
  1411                           
  1412                           ;LCD_LIB.c: 59:     Load_Cmd(0x00);
  1413     07ED  3000               	movlw	0
  1414     07EE  3187  271E  3187   	fcall	_Load_Cmd
  1415     07F1                     l757:
  1416                           
  1417                           ;LCD_LIB.c: 60:     Load_Cmd(0x01);
  1418     07F1  3001               	movlw	1
  1419     07F2  3187  271E  3187   	fcall	_Load_Cmd
  1420     07F5                     l759:
  1421                           
  1422                           ;LCD_LIB.c: 61:     _delay((unsigned long)((2)*(20000000UL/4000.0)));
  1423     07F5  300D               	movlw	13
  1424     07F6  00F1               	movwf	??_LCD_Init
  1425     07F7  30FC               	movlw	252
  1426     07F8                     u217:
  1427     07F8  0B89               	decfsz	9,f
  1428     07F9  2FF8               	goto	u217
  1429     07FA  0BF1               	decfsz	??_LCD_Init,f
  1430     07FB  2FF8               	goto	u217
  1431     07FC                     l47:
  1432     07FC  0008               	return
  1433     07FD                     __end_of_LCD_Init:
  1434                           
  1435                           	psect	text5
  1436     0702                     __ptext5:	
  1437 ;; *************** function _LCD_Cmd *****************
  1438 ;; Defined at:
  1439 ;;		line 64 in file "LCD_LIB.c"
  1440 ;; Parameters:    Size  Location     Type
  1441 ;;  cmd             1    wreg     unsigned char 
  1442 ;; Auto vars:     Size  Location     Type
  1443 ;;  cmd             1    4[COMMON] unsigned char 
  1444 ;;  NibbleL         1    3[COMMON] unsigned char 
  1445 ;;  NibbleH         1    2[COMMON] unsigned char 
  1446 ;; Return value:  Size  Location     Type
  1447 ;;                  1    wreg      void 
  1448 ;; Registers used:
  1449 ;;		wreg, status,2, status,0, pclath, cstack
  1450 ;; Tracked objects:
  1451 ;;		On entry : 0/0
  1452 ;;		On exit  : 0/0
  1453 ;;		Unchanged: 0/0
  1454 ;; Data sizes:     COMMON   BANK0   BANK1   BANK2   BANK3   BANK4   BANK5   BANK6   BANK7   BANK8   BANK9  BANK10  BANK1
      +1  BANK12
  1455 ;;      Params:         0       0       0       0       0       0       0       0       0       0       0       0       
      +0       0
  1456 ;;      Locals:         3       0       0       0       0       0       0       0       0       0       0       0       
      +0       0
  1457 ;;      Temps:          1       0       0       0       0       0       0       0       0       0       0       0       
      +0       0
  1458 ;;      Totals:         4       0       0       0       0       0       0       0       0       0       0       0       
      +0       0
  1459 ;;Total ram usage:        4 bytes
  1460 ;; Hardware stack levels used: 1
  1461 ;; Hardware stack levels required when called: 1
  1462 ;; This function calls:
  1463 ;;		_Load_Cmd
  1464 ;; This function is called by:
  1465 ;;		_main
  1466 ;;		_LCD_Set_Cursor
  1467 ;; This function uses a non-reentrant model
  1468 ;;
  1469                           
  1470     0702                     _LCD_Cmd:	
  1471                           ;psect for function _LCD_Cmd
  1472                           
  1473                           
  1474                           ;incstack = 0
  1475                           ; Regs used in _LCD_Cmd: [wreg+status,2+status,0+pclath+cstack]
  1476                           ;LCD_Cmd@cmd stored from wreg
  1477     0702  00F4               	movwf	LCD_Cmd@cmd
  1478     0703                     l769:
  1479                           
  1480                           ;LCD_LIB.c: 65:     char NibbleH, NibbleL;;LCD_LIB.c: 66:     NibbleH = cmd>>4;
  1481     0703  0874               	movf	LCD_Cmd@cmd,w
  1482     0704  00F1               	movwf	??_LCD_Cmd
  1483     0705  3004               	movlw	4
  1484     0706                     u115:
  1485     0706  36F1               	lsrf	??_LCD_Cmd,f
  1486     0707  0B89               	decfsz	9,f
  1487     0708  2F06               	goto	u115
  1488     0709  0871               	movf	??_LCD_Cmd,w
  1489     070A  00F2               	movwf	LCD_Cmd@NibbleH
  1490     070B                     l771:
  1491                           
  1492                           ;LCD_LIB.c: 67:     NibbleL = cmd & 0x0F;
  1493     070B  0874               	movf	LCD_Cmd@cmd,w
  1494     070C  390F               	andlw	15
  1495     070D  00F3               	movwf	LCD_Cmd@NibbleL
  1496     070E                     l773:
  1497                           
  1498                           ;LCD_LIB.c: 68:     Load_Cmd(NibbleH);
  1499     070E  0872               	movf	LCD_Cmd@NibbleH,w
  1500     070F  3187  271E  3187   	fcall	_Load_Cmd
  1501     0712                     l775:
  1502                           
  1503                           ;LCD_LIB.c: 69:     Load_Cmd(NibbleL);
  1504     0712  0873               	movf	LCD_Cmd@NibbleL,w
  1505     0713  3187  271E  3187   	fcall	_Load_Cmd
  1506     0716                     l777:
  1507                           
  1508                           ;LCD_LIB.c: 70:     _delay((unsigned long)((2)*(20000000UL/4000.0)));
  1509     0716  300D               	movlw	13
  1510     0717  00F1               	movwf	??_LCD_Cmd
  1511     0718  30FC               	movlw	252
  1512     0719                     u227:
  1513     0719  0B89               	decfsz	9,f
  1514     071A  2F19               	goto	u227
  1515     071B  0BF1               	decfsz	??_LCD_Cmd,f
  1516     071C  2F19               	goto	u227
  1517     071D                     l50:
  1518     071D  0008               	return
  1519     071E                     __end_of_LCD_Cmd:
  1520                           
  1521                           	psect	text6
  1522     071E                     __ptext6:	
  1523 ;; *************** function _Load_Cmd *****************
  1524 ;; Defined at:
  1525 ;;		line 6 in file "LCD_LIB.c"
  1526 ;; Parameters:    Size  Location     Type
  1527 ;;  cmd             1    wreg     unsigned char 
  1528 ;; Auto vars:     Size  Location     Type
  1529 ;;  cmd             1    0[COMMON] unsigned char 
  1530 ;; Return value:  Size  Location     Type
  1531 ;;                  1    wreg      void 
  1532 ;; Registers used:
  1533 ;;		wreg
  1534 ;; Tracked objects:
  1535 ;;		On entry : 0/0
  1536 ;;		On exit  : 0/0
  1537 ;;		Unchanged: 0/0
  1538 ;; Data sizes:     COMMON   BANK0   BANK1   BANK2   BANK3   BANK4   BANK5   BANK6   BANK7   BANK8   BANK9  BANK10  BANK1
      +1  BANK12
  1539 ;;      Params:         0       0       0       0       0       0       0       0       0       0       0       0       
      +0       0
  1540 ;;      Locals:         1       0       0       0       0       0       0       0       0       0       0       0       
      +0       0
  1541 ;;      Temps:          0       0       0       0       0       0       0       0       0       0       0       0       
      +0       0
  1542 ;;      Totals:         1       0       0       0       0       0       0       0       0       0       0       0       
      +0       0
  1543 ;;Total ram usage:        1 bytes
  1544 ;; Hardware stack levels used: 1
  1545 ;; This function calls:
  1546 ;;		Nothing
  1547 ;; This function is called by:
  1548 ;;		_LCD_Init
  1549 ;;		_LCD_Cmd
  1550 ;; This function uses a non-reentrant model
  1551 ;;
  1552                           
  1553     071E                     _Load_Cmd:	
  1554                           ;psect for function _Load_Cmd
  1555                           
  1556                           
  1557                           ;incstack = 0
  1558                           ; Regs used in _Load_Cmd: [wreg]
  1559                           ;Load_Cmd@cmd stored from wreg
  1560     071E  00F0               	movwf	Load_Cmd@cmd
  1561     071F                     l705:
  1562                           
  1563                           ;LCD_LIB.c: 7:     LATDbits.LATD0 = 0;
  1564     071F  0022               	movlb	2	; select bank2
  1565     0720  100F               	bcf	15,0	;volatile
  1566     0721                     l707:
  1567                           
  1568                           ;LCD_LIB.c: 9:     if( (cmd & 1) == 0 ) LATDbits.LATD4 = 0; else LATDbits.LATD4 = 1;
  1569     0721  1870               	btfsc	Load_Cmd@cmd,0
  1570     0722  2F24               	goto	u51
  1571     0723  2F25               	goto	u50
  1572     0724                     u51:
  1573     0724  2F27               	goto	l25
  1574     0725                     u50:
  1575     0725                     l709:
  1576     0725  120F               	bcf	15,4	;volatile
  1577     0726  2F28               	goto	l711
  1578     0727                     l25:
  1579     0727  160F               	bsf	15,4	;volatile
  1580     0728                     l711:
  1581                           
  1582                           ;LCD_LIB.c: 10:     if( (cmd & 2) == 0 ) LATDbits.LATD5 = 0; else LATDbits.LATD5 = 1;
  1583     0728  18F0               	btfsc	Load_Cmd@cmd,1
  1584     0729  2F2B               	goto	u61
  1585     072A  2F2C               	goto	u60
  1586     072B                     u61:
  1587     072B  2F2E               	goto	l27
  1588     072C                     u60:
  1589     072C                     l713:
  1590     072C  128F               	bcf	15,5	;volatile
  1591     072D  2F2F               	goto	l715
  1592     072E                     l27:
  1593     072E  168F               	bsf	15,5	;volatile
  1594     072F                     l715:
  1595                           
  1596                           ;LCD_LIB.c: 11:     if( (cmd & 4) == 0 ) LATDbits.LATD6 = 0; else LATDbits.LATD6 = 1;
  1597     072F  1970               	btfsc	Load_Cmd@cmd,2
  1598     0730  2F32               	goto	u71
  1599     0731  2F33               	goto	u70
  1600     0732                     u71:
  1601     0732  2F35               	goto	l29
  1602     0733                     u70:
  1603     0733                     l717:
  1604     0733  130F               	bcf	15,6	;volatile
  1605     0734  2F36               	goto	l719
  1606     0735                     l29:
  1607     0735  170F               	bsf	15,6	;volatile
  1608     0736                     l719:
  1609                           
  1610                           ;LCD_LIB.c: 12:     if( (cmd & 8) == 0 ) LATDbits.LATD7 = 0; else LATDbits.LATD7 = 1;
  1611     0736  19F0               	btfsc	Load_Cmd@cmd,3
  1612     0737  2F39               	goto	u81
  1613     0738  2F3A               	goto	u80
  1614     0739                     u81:
  1615     0739  2F3C               	goto	l31
  1616     073A                     u80:
  1617     073A                     l721:
  1618     073A  138F               	bcf	15,7	;volatile
  1619     073B  2F3D               	goto	l32
  1620     073C                     l31:
  1621     073C  178F               	bsf	15,7	;volatile
  1622     073D                     l32:
  1623                           
  1624                           ;LCD_LIB.c: 14:     LATDbits.LATD1 = 0;
  1625     073D  108F               	bcf	15,1	;volatile
  1626                           
  1627                           ;LCD_LIB.c: 15:     LATDbits.LATD1 = 1;
  1628     073E  148F               	bsf	15,1	;volatile
  1629                           
  1630                           ;LCD_LIB.c: 16:     LATDbits.LATD1 = 0;
  1631     073F  108F               	bcf	15,1	;volatile
  1632     0740                     l723:
  1633                           
  1634                           ;LCD_LIB.c: 17:     _delay((unsigned long)((300)*(20000000UL/4000000.0)));
  1635     0740  30D6               	movlw	214
  1636     0741                     u237:
  1637     0741  3200               	nop2
  1638     0742  3200               	nop2
  1639     0743  0B89               	decfsz	9,f
  1640     0744  2F41               	goto	u237
  1641     0745  3200               	nop2
  1642     0746                     l33:
  1643     0746  0008               	return
  1644     0747                     __end_of_Load_Cmd:
  1645     007E                     btemp	set	126	;btemp
  1646     007E                     wtemp0	set	126
  1647                           
  1648                           	psect	idloc
  1649                           
  1650                           ;Config register IDLOC0 @ 0x8000
  1651                           ;	unspecified, using default values
  1652     8000                     	org	32768
  1653     8000  3FFF               	dw	16383
  1654                           
  1655                           ;Config register IDLOC1 @ 0x8001
  1656                           ;	unspecified, using default values
  1657     8001                     	org	32769
  1658     8001  3FFF               	dw	16383
  1659                           
  1660                           ;Config register IDLOC2 @ 0x8002
  1661                           ;	unspecified, using default values
  1662     8002                     	org	32770
  1663     8002  3FFF               	dw	16383
  1664                           
  1665                           ;Config register IDLOC3 @ 0x8003
  1666                           ;	unspecified, using default values
  1667     8003                     	org	32771
  1668     8003  3FFF               	dw	16383
  1669                           
  1670                           	psect	config
  1671                           
  1672                           ;Config register CONFIG1 @ 0x8007
  1673                           ;	Oscillator Selection
  1674                           ;	FOSC = HS, HS Oscillator, High-speed crystal/resonator connected between OSC1 and OSC2
      +                           pins
  1675                           ;	Watchdog Timer Enable
  1676                           ;	WDTE = OFF, WDT disabled
  1677                           ;	Power-up Timer Enable
  1678                           ;	PWRTE = OFF, PWRT disabled
  1679                           ;	MCLR Pin Function Select
  1680                           ;	MCLRE = ON, MCLR/VPP pin function is MCLR
  1681                           ;	Flash Program Memory Code Protection
  1682                           ;	CP = OFF, Program memory code protection is disabled
  1683                           ;	Data Memory Code Protection
  1684                           ;	CPD = OFF, Data memory code protection is disabled
  1685                           ;	Brown-out Reset Enable
  1686                           ;	BOREN = ON, Brown-out Reset enabled
  1687                           ;	Clock Out Enable
  1688                           ;	CLKOUTEN = OFF, CLKOUT function is disabled. I/O or oscillator function on the CLKOUT 
      +                          pin
  1689                           ;	Internal/External Switchover
  1690                           ;	IESO = ON, Internal/External Switchover mode is enabled
  1691                           ;	Fail-Safe Clock Monitor Enable
  1692                           ;	FCMEN = ON, Fail-Safe Clock Monitor is enabled
  1693     8007                     	org	32775
  1694     8007  3FE2               	dw	16354
  1695                           
  1696                           ;Config register CONFIG2 @ 0x8008
  1697                           ;	Flash Memory Self-Write Protection
  1698                           ;	WRT = OFF, Write protection off
  1699                           ;	Voltage Regulator Capacitor Enable
  1700                           ;	VCAPEN = OFF, All VCAP pin functionality is disabled
  1701                           ;	PLL Enable
  1702                           ;	PLLEN = OFF, 4x PLL disabled
  1703                           ;	Stack Overflow/Underflow Reset Enable
  1704                           ;	STVREN = ON, Stack Overflow or Underflow will cause a Reset
  1705                           ;	Brown-out Reset Voltage Selection
  1706                           ;	BORV = LO, Brown-out Reset Voltage (Vbor), low trip point selected.
  1707                           ;	Low-Voltage Programming Enable
  1708                           ;	LVP = ON, Low-voltage programming enabled
  1709     8008                     	org	32776
  1710     8008  3EFF               	dw	16127

Data Sizes:
    Strings     21
    Constant    0
    Data        0
    BSS         0
    Persistent  32
    Stack       0

Auto Spaces:
    Space          Size  Autos    Used
    COMMON           14     10      10
    BANK0            80      0       0
    BANK1            80      0       0
    BANK2            80      0       0
    BANK3            80      0       0
    BANK4            80      0       0
    BANK5            80      0       0
    BANK6            80      0       0
    BANK7            80      0       0
    BANK8            80      0       0
    BANK9            80      0       0
    BANK10           80      0       0
    BANK11           80      0       0
    BANK12           48      0       0

Pointer List with Targets:

    LCD_Write_Text_Cp@text	PTR unsigned char  size(2) Largest target is 21
		 -> STR_1(CODE[21]), 


Critical Paths under _main in COMMON

    _main->_LCD_Write_Text_Cp
    _LCD_Write_Text_Cp->_LCD_Write_Cp
    _LCD_Write_Cp->_Load_Data
    _LCD_Init->_Load_Cmd
    _LCD_Cmd->_Load_Cmd

Critical Paths under _main in BANK0

    None.

Critical Paths under _main in BANK1

    None.

Critical Paths under _main in BANK2

    None.

Critical Paths under _main in BANK3

    None.

Critical Paths under _main in BANK4

    None.

Critical Paths under _main in BANK5

    None.

Critical Paths under _main in BANK6

    None.

Critical Paths under _main in BANK7

    None.

Critical Paths under _main in BANK8

    None.

Critical Paths under _main in BANK9

    None.

Critical Paths under _main in BANK10

    None.

Critical Paths under _main in BANK11

    None.

Critical Paths under _main in BANK12

    None.

Call Graph Tables:

 ---------------------------------------------------------------------------------
 (Depth) Function   	        Calls       Base Space   Used Autos Params    Refs
 ---------------------------------------------------------------------------------
 (0) _main                                                 2     2      0     421
                                              8 COMMON     2     2      0
                            _LCD_Cmd
                           _LCD_Init
                  _LCD_Write_Text_Cp
 ---------------------------------------------------------------------------------
 (1) _LCD_Write_Text_Cp                                    3     1      2     241
                                              5 COMMON     3     1      2
                       _LCD_Write_Cp
 ---------------------------------------------------------------------------------
 (2) _LCD_Write_Cp                                         4     4      0     120
                                              1 COMMON     4     4      0
                          _Load_Data
 ---------------------------------------------------------------------------------
 (3) _Load_Data                                            1     1      0      60
                                              0 COMMON     1     1      0
 ---------------------------------------------------------------------------------
 (1) _LCD_Init                                             1     1      0      60
                                              1 COMMON     1     1      0
                           _Load_Cmd
 ---------------------------------------------------------------------------------
 (1) _LCD_Cmd                                              4     4      0     120
                                              1 COMMON     4     4      0
                           _Load_Cmd
 ---------------------------------------------------------------------------------
 (2) _Load_Cmd                                             1     1      0      60
                                              0 COMMON     1     1      0
 ---------------------------------------------------------------------------------
 Estimated maximum stack depth 3
 ---------------------------------------------------------------------------------

 Call Graph Graphs:

 _main (ROOT)
   _LCD_Cmd
     _Load_Cmd
   _LCD_Init
     _Load_Cmd
   _LCD_Write_Text_Cp
     _LCD_Write_Cp
       _Load_Data

 Address spaces:
Name               Size   Autos  Total    Cost      Usage
BIGRAM             3F0      0       0       0        0.0%
EEDATA             100      0       0       0        0.0%
NULL                 0      0       0       0        0.0%
CODE                 0      0       0       0        0.0%
BITCOMMON            E      0       0       1        0.0%
BITSFR0              0      0       0       1        0.0%
SFR0                 0      0       0       1        0.0%
COMMON               E      A       A       2       71.4%
BITSFR1              0      0       0       2        0.0%
SFR1                 0      0       0       2        0.0%
BITSFR2              0      0       0       3        0.0%
SFR2                 0      0       0       3        0.0%
STACK                0      0       0       3        0.0%
BITBANK0            50      0       0       4        0.0%
BITSFR3              0      0       0       4        0.0%
SFR3                 0      0       0       4        0.0%
BANK0               50      0       0       5        0.0%
BITSFR4              0      0       0       5        0.0%
SFR4                 0      0       0       5        0.0%
BITBANK1            50      0       0       6        0.0%
BITSFR5              0      0       0       6        0.0%
SFR5                 0      0       0       6        0.0%
BANK1               50      0       0       7        0.0%
BITSFR6              0      0       0       7        0.0%
SFR6                 0      0       0       7        0.0%
BITBANK2            50      0       0       8        0.0%
BITSFR7              0      0       0       8        0.0%
SFR7                 0      0       0       8        0.0%
BANK2               50      0       0       9        0.0%
BITSFR8              0      0       0       9        0.0%
SFR8                 0      0       0       9        0.0%
BITBANK3            50      0       0      10        0.0%
BITSFR9              0      0       0      10        0.0%
SFR9                 0      0       0      10        0.0%
BANK3               50      0       0      11        0.0%
BITSFR10             0      0       0      11        0.0%
SFR10                0      0       0      11        0.0%
BITBANK4            50      0       0      12        0.0%
BITSFR11             0      0       0      12        0.0%
SFR11                0      0       0      12        0.0%
BANK4               50      0       0      13        0.0%
BITSFR12             0      0       0      13        0.0%
SFR12                0      0       0      13        0.0%
BITBANK5            50      0       0      14        0.0%
BITSFR13             0      0       0      14        0.0%
SFR13                0      0       0      14        0.0%
BANK5               50      0       0      15        0.0%
BITSFR14             0      0       0      15        0.0%
SFR14                0      0       0      15        0.0%
BITBANK6            50      0       0      16        0.0%
BITSFR15             0      0       0      16        0.0%
SFR15                0      0       0      16        0.0%
BANK6               50      0       0      17        0.0%
BITSFR16             0      0       0      17        0.0%
SFR16                0      0       0      17        0.0%
BITBANK7            50      0       0      18        0.0%
BITSFR17             0      0       0      18        0.0%
SFR17                0      0       0      18        0.0%
BANK7               50      0       0      19        0.0%
BITSFR18             0      0       0      19        0.0%
SFR18                0      0       0      19        0.0%
BITSFR19             0      0       0      20        0.0%
SFR19                0      0       0      20        0.0%
ABS                  0      0       0      20        0.0%
BITBANK8            50      0       0      21        0.0%
BITSFR20             0      0       0      21        0.0%
SFR20                0      0       0      21        0.0%
BANK8               50      0       0      22        0.0%
BITSFR21             0      0       0      22        0.0%
SFR21                0      0       0      22        0.0%
BITBANK9            50      0       0      23        0.0%
BITSFR22             0      0       0      23        0.0%
SFR22                0      0       0      23        0.0%
BANK9               50      0       0      24        0.0%
BITSFR23             0      0       0      24        0.0%
SFR23                0      0       0      24        0.0%
BITBANK10           50      0       0      25        0.0%
BITSFR24             0      0       0      25        0.0%
SFR24                0      0       0      25        0.0%
BANK10              50      0       0      26        0.0%
BITSFR25             0      0       0      26        0.0%
SFR25                0      0       0      26        0.0%
BITBANK11           50      0       0      27        0.0%
BITSFR26             0      0       0      27        0.0%
SFR26                0      0       0      27        0.0%
BANK11              50      0       0      28        0.0%
BITSFR27             0      0       0      28        0.0%
SFR27                0      0       0      28        0.0%
BITBANK12           30      0       0      29        0.0%
BITSFR28             0      0       0      29        0.0%
SFR28                0      0       0      29        0.0%
BANK12              30      0       0      30        0.0%
BITSFR29             0      0       0      30        0.0%
SFR29                0      0       0      30        0.0%
BITSFR30             0      0       0      31        0.0%
SFR30                0      0       0      31        0.0%
DATA                 0      0       0      31        0.0%
BITSFR31             0      0       0      32        0.0%
SFR31                0      0       0      32        0.0%


Microchip Technology PIC Macro Assembler V2.41 build 20230208172133 
Symbol Table                                                                                   Fri Sep 01 20:44:07 2023

                       l13 07AA                         l14 07AA                         l31 073C  
                       l32 073D                         l40 075E                         l33 0746  
                       l25 0727                         l50 071D                         l42 0765  
                       l27 072E                         l43 0766                         l44 076F  
                       l36 0750                         l29 0735                         l53 06EA  
                       l38 0757                         l47 07FC                         l59 0701  
                       u10 074E                         u11 074D                         u20 0755  
                       u21 0754                         u30 075C                         u31 075B  
                       u40 0763                         u41 0762                         u50 0725  
                       u51 0724                         u60 072C                         u61 072B  
                       u70 0733                         u71 0732                         u80 073A  
                       u81 0739                         u95 06DA                        l701 0763  
                      l711 0728                        l703 0769                        l721 073A  
                      l713 072C                        l705 071F                        l723 0740  
                      l715 072F                        l707 0721                        l731 06E6  
                      l717 0733                        l709 0725                        l741 07D1  
                      l733 07AD                        l725 06D7                        l719 0736  
                      l751 07E5                        l743 07D5                        l735 07BA  
                      l727 06DF                        l831 06F4                        l753 07E9  
                      l745 07D9                        l737 07C1                        l729 06E2  
                      l833 06F8                        l841 0786                        l771 070B  
                      l755 07ED                        l747 07DD                        l739 07C5  
                      l691 0751                        l827 06EB                        l843 078A  
                      l835 0770                        l773 070E                        l757 07F1  
                      l749 07E1                        l693 0755                        l685 0748  
                      l829 06EC                        l845 0796                        l837 0773  
                      l775 0712                        l759 07F5                        l695 0758  
                      l687 074A                        l847 079A                        l839 077A  
                      l777 0716                        l769 0703                        l697 075C  
                      l689 074E                        l849 07A6                        l699 075F  
                      u130 0701                        u115 0706                        u131 0700  
                      u207 07D2                        u217 07F8                        u227 0719  
                      u147 077F                        u237 0741                        u157 078F  
                      u167 079F                        u177 076A                        u187 07BD  
                      u197 07C8                        wreg 0009            __end_of_LCD_Cmd 071E  
                     STR_1 0800                       _main 0770                       fsr0h 0005  
                     indf0 0000                       fsr0l 0004                       btemp 007E  
                     start 0002              ?_LCD_Write_Cp 0070                Load_Cmd@cmd 0070  
         __end_of_LCD_Init 07FD                      ?_main 0070          _LCD_Write_Text_Cp 06EB  
       ?_LCD_Write_Text_Cp 0075        ??_LCD_Write_Text_Cp 0077                      status 0003  
                    wtemp0 007E             ??_LCD_Write_Cp 0071            __initialization 07FD  
             __end_of_main 07AD           __end_of_Load_Cmd 0747  __end_of_LCD_Write_Text_Cp 0702  
                   ??_main 0078                  ??_LCD_Cmd 0071    __end_of__initialization 07FD  
                ?_LCD_Init 0070             __pcstackCOMMON 0070             LCD_Cmd@NibbleH 0072  
           LCD_Cmd@NibbleL 0073          __end_of_Load_Data 0770       __end_of_LCD_Write_Cp 06EB  
            Load_Data@data 0070                  ?_Load_Cmd 0070                 ??_LCD_Init 0071  
               __pmaintext 0770                    _LCD_Cmd 0702                 ??_Load_Cmd 0070  
                  __ptext1 06EB                    __ptext2 06D6                    __ptext3 0747  
                  __ptext4 07AD                    __ptext5 0702                    __ptext6 071E  
     end_of_initialization 07FD          LCD_Write_Cp@letra 0074                  _TRISDbits 008F  
               LCD_Cmd@cmd 0074               _LCD_Write_Cp 06D6        start_initialization 07FD  
                _Load_Data 0747                   ?_LCD_Cmd 0070                 ?_Load_Data 0070  
                ___latbits 0003                   _LCD_Init 07AD                   _LATDbits 010F  
      LCD_Write_Cp@NibbleH 0072        LCD_Write_Cp@NibbleL 0073                ??_Load_Data 0070  
                 _Load_Cmd 071E              __pstringtext1 0800              __pstringtext2 0000  
    LCD_Write_Text_Cp@text 0075  
