

Microchip MPLAB XC8 Assembler V2.36 build 20220127204148 
                                                                                               Fri Nov 10 09:18:49 2023

Microchip MPLAB XC8 C Compiler v2.36 (Free license) build 20220127204148 Og1 
     1                           	processor	16F1939
     2                           	pagewidth 120
     3                           	opt	flic
     4                           	psect	idataBANK0,global,class=CODE,delta=2,noexec
     5                           	psect	stringtext1,global,class=STRCODE,delta=2,noexec
     6                           	psect	stringtext2,global,class=STRCODE,delta=2,noexec
     7                           	psect	cinit,global,class=CODE,merge=1,delta=2
     8                           	psect	bssBANK0,global,class=BANK0,space=1,delta=1,noexec
     9                           	psect	dataBANK0,global,class=BANK0,space=1,delta=1,noexec
    10                           	psect	inittext,global,class=CODE,delta=2
    11                           	psect	cstackCOMMON,global,class=COMMON,space=1,delta=1,noexec
    12                           	psect	cstackBANK0,global,class=BANK0,space=1,delta=1,noexec
    13                           	psect	maintext,global,class=CODE,merge=1,split=1,delta=2
    14                           	psect	text1,local,class=CODE,merge=1,delta=2
    15                           	psect	text2,local,class=CODE,merge=1,delta=2
    16                           	psect	text3,local,class=CODE,merge=1,delta=2
    17                           	psect	text4,local,class=CODE,merge=1,delta=2
    18                           	psect	text5,local,class=CODE,merge=1,delta=2
    19                           	psect	text6,local,class=CODE,merge=1,delta=2
    20                           	psect	text7,local,class=CODE,merge=1,delta=2
    21                           	psect	text8,local,class=CODE,merge=1,delta=2
    22                           	psect	text9,local,class=CODE,merge=1,delta=2
    23                           	psect	text10,local,class=CODE,merge=1,delta=2
    24                           	psect	text11,local,class=CODE,merge=1,delta=2
    25                           	psect	text12,local,class=CODE,merge=1,delta=2
    26                           	psect	text13,local,class=CODE,merge=1,delta=2
    27                           	psect	text14,local,class=CODE,merge=1,delta=2
    28                           	psect	text15,local,class=CODE,merge=1,delta=2
    29                           	psect	text16,local,class=CODE,merge=1,delta=2
    30                           	psect	idloc,global,abs,ovrld,class=IDLOC,space=5,delta=2,noexec
    31                           	psect	config,global,abs,ovrld,class=CONFIG,space=4,delta=2,noexec
    32                           	dabs	1,0x7E,2
    33  0000                     
    34                           ; Version 2.40
    35                           ; Generated 17/11/2021 GMT
    36                           ; 
    37                           ; Copyright © 2021, Microchip Technology Inc. and its subsidiaries ("Microchip")
    38                           ; All rights reserved.
    39                           ; 
    40                           ; This software is developed by Microchip Technology Inc. and its subsidiaries ("Microch
      +                          ip").
    41                           ; 
    42                           ; Redistribution and use in source and binary forms, with or without modification, are
    43                           ; permitted provided that the following conditions are met:
    44                           ; 
    45                           ;     1. Redistributions of source code must retain the above copyright notice, this lis
      +                          t of
    46                           ;        conditions and the following disclaimer.
    47                           ; 
    48                           ;     2. Redistributions in binary form must reproduce the above copyright notice, this 
      +                          list
    49                           ;        of conditions and the following disclaimer in the documentation and/or other
    50                           ;        materials provided with the distribution. Publication is not required when
    51                           ;        this file is used in an embedded application.
    52                           ; 
    53                           ;     3. Microchip's name may not be used to endorse or promote products derived from th
      +                          is
    54                           ;        software without specific prior written permission.
    55                           ; 
    56                           ; THIS SOFTWARE IS PROVIDED BY MICROCHIP "AS IS" AND ANY EXPRESS OR IMPLIED WARRANTIES,
    57                           ; INCLUDING, BUT NOT LIMITED TO, THE IMPLIED WARRANTIES OF MERCHANTABILITY AND FITNESS F
      +                          OR
    58                           ; PURPOSE ARE DISCLAIMED.  IN NO EVENT SHALL MICROCHIP BE LIABLE FOR ANY DIRECT, INDIREC
      +                          T,
    59                           ; INCIDENTAL, SPECIAL, EXEMPLARY, OR CONSEQUENTIAL DAMAGES (INCLUDING BUT NOT LIMITED TO
    60                           ; PROCUREMENT OF SUBSTITUTE GOODS OR SERVICES; LOSS OF USE, DATA OR PROFITS; OR BUSINESS
    61                           ; INTERRUPTION) HOWSOEVER CAUSED AND ON ANY THEORY OF LIABILITY, WHETHER IN CONTRACT, ST
      +                          RICT
    62                           ; LIABILITY, OR TORT (INCLUDING NEGLIGENCE OR OTHERWISE) ARISING IN ANY WAY OUT OF THE U
      +                          SE OF
    63                           ; THIS SOFTWARE, EVEN IF ADVISED OF THE POSSIBILITY OF SUCH DAMAGE.
    64                           ; 
    65                           ; 
    66                           ; Code-generator required, PIC16F1939 Definitions
    67                           ; 
    68                           ; SFR Addresses
    69  0000                     	;# 
    70  0001                     	;# 
    71  0002                     	;# 
    72  0003                     	;# 
    73  0004                     	;# 
    74  0005                     	;# 
    75  0006                     	;# 
    76  0007                     	;# 
    77  0008                     	;# 
    78  0009                     	;# 
    79  000A                     	;# 
    80  000B                     	;# 
    81  000C                     	;# 
    82  000D                     	;# 
    83  000E                     	;# 
    84  000F                     	;# 
    85  0010                     	;# 
    86  0011                     	;# 
    87  0012                     	;# 
    88  0013                     	;# 
    89  0015                     	;# 
    90  0016                     	;# 
    91  0016                     	;# 
    92  0017                     	;# 
    93  0018                     	;# 
    94  0019                     	;# 
    95  001A                     	;# 
    96  001B                     	;# 
    97  001C                     	;# 
    98  001E                     	;# 
    99  001F                     	;# 
   100  008C                     	;# 
   101  008D                     	;# 
   102  008E                     	;# 
   103  008F                     	;# 
   104  0090                     	;# 
   105  0091                     	;# 
   106  0092                     	;# 
   107  0093                     	;# 
   108  0095                     	;# 
   109  0096                     	;# 
   110  0097                     	;# 
   111  0098                     	;# 
   112  0099                     	;# 
   113  009A                     	;# 
   114  009B                     	;# 
   115  009B                     	;# 
   116  009C                     	;# 
   117  009D                     	;# 
   118  009E                     	;# 
   119  010C                     	;# 
   120  010D                     	;# 
   121  010E                     	;# 
   122  010F                     	;# 
   123  0110                     	;# 
   124  0111                     	;# 
   125  0112                     	;# 
   126  0113                     	;# 
   127  0114                     	;# 
   128  0115                     	;# 
   129  0116                     	;# 
   130  0117                     	;# 
   131  0118                     	;# 
   132  0119                     	;# 
   133  011A                     	;# 
   134  011B                     	;# 
   135  011D                     	;# 
   136  018C                     	;# 
   137  018D                     	;# 
   138  018F                     	;# 
   139  0190                     	;# 
   140  0191                     	;# 
   141  0191                     	;# 
   142  0192                     	;# 
   143  0193                     	;# 
   144  0193                     	;# 
   145  0193                     	;# 
   146  0194                     	;# 
   147  0195                     	;# 
   148  0196                     	;# 
   149  0199                     	;# 
   150  019A                     	;# 
   151  019B                     	;# 
   152  019B                     	;# 
   153  019B                     	;# 
   154  019B                     	;# 
   155  019C                     	;# 
   156  019C                     	;# 
   157  019D                     	;# 
   158  019E                     	;# 
   159  019F                     	;# 
   160  020D                     	;# 
   161  0210                     	;# 
   162  0211                     	;# 
   163  0212                     	;# 
   164  0213                     	;# 
   165  0214                     	;# 
   166  0215                     	;# 
   167  0215                     	;# 
   168  0216                     	;# 
   169  0217                     	;# 
   170  0291                     	;# 
   171  0291                     	;# 
   172  0292                     	;# 
   173  0293                     	;# 
   174  0294                     	;# 
   175  0295                     	;# 
   176  0295                     	;# 
   177  0296                     	;# 
   178  0298                     	;# 
   179  0298                     	;# 
   180  0299                     	;# 
   181  029A                     	;# 
   182  029B                     	;# 
   183  029C                     	;# 
   184  029C                     	;# 
   185  029D                     	;# 
   186  029E                     	;# 
   187  029F                     	;# 
   188  0311                     	;# 
   189  0311                     	;# 
   190  0312                     	;# 
   191  0313                     	;# 
   192  0314                     	;# 
   193  0315                     	;# 
   194  0315                     	;# 
   195  0316                     	;# 
   196  0318                     	;# 
   197  0318                     	;# 
   198  0319                     	;# 
   199  031A                     	;# 
   200  031C                     	;# 
   201  031C                     	;# 
   202  031D                     	;# 
   203  031E                     	;# 
   204  0394                     	;# 
   205  0395                     	;# 
   206  0396                     	;# 
   207  0415                     	;# 
   208  0416                     	;# 
   209  0417                     	;# 
   210  041C                     	;# 
   211  041D                     	;# 
   212  041E                     	;# 
   213  0791                     	;# 
   214  0792                     	;# 
   215  0793                     	;# 
   216  0794                     	;# 
   217  0795                     	;# 
   218  0798                     	;# 
   219  0799                     	;# 
   220  079A                     	;# 
   221  07A0                     	;# 
   222  07A1                     	;# 
   223  07A2                     	;# 
   224  07A3                     	;# 
   225  07A4                     	;# 
   226  07A5                     	;# 
   227  07A6                     	;# 
   228  07A7                     	;# 
   229  07A8                     	;# 
   230  07A9                     	;# 
   231  07AA                     	;# 
   232  07AB                     	;# 
   233  0FE4                     	;# 
   234  0FE5                     	;# 
   235  0FE6                     	;# 
   236  0FE7                     	;# 
   237  0FE8                     	;# 
   238  0FE9                     	;# 
   239  0FEA                     	;# 
   240  0FEB                     	;# 
   241  0FED                     	;# 
   242  0FEE                     	;# 
   243  0FEF                     	;# 
   244  0000                     	;# 
   245  0001                     	;# 
   246  0002                     	;# 
   247  0003                     	;# 
   248  0004                     	;# 
   249  0005                     	;# 
   250  0006                     	;# 
   251  0007                     	;# 
   252  0008                     	;# 
   253  0009                     	;# 
   254  000A                     	;# 
   255  000B                     	;# 
   256  000C                     	;# 
   257  000D                     	;# 
   258  000E                     	;# 
   259  000F                     	;# 
   260  0010                     	;# 
   261  0011                     	;# 
   262  0012                     	;# 
   263  0013                     	;# 
   264  0015                     	;# 
   265  0016                     	;# 
   266  0016                     	;# 
   267  0017                     	;# 
   268  0018                     	;# 
   269  0019                     	;# 
   270  001A                     	;# 
   271  001B                     	;# 
   272  001C                     	;# 
   273  001E                     	;# 
   274  001F                     	;# 
   275  008C                     	;# 
   276  008D                     	;# 
   277  008E                     	;# 
   278  008F                     	;# 
   279  0090                     	;# 
   280  0091                     	;# 
   281  0092                     	;# 
   282  0093                     	;# 
   283  0095                     	;# 
   284  0096                     	;# 
   285  0097                     	;# 
   286  0098                     	;# 
   287  0099                     	;# 
   288  009A                     	;# 
   289  009B                     	;# 
   290  009B                     	;# 
   291  009C                     	;# 
   292  009D                     	;# 
   293  009E                     	;# 
   294  010C                     	;# 
   295  010D                     	;# 
   296  010E                     	;# 
   297  010F                     	;# 
   298  0110                     	;# 
   299  0111                     	;# 
   300  0112                     	;# 
   301  0113                     	;# 
   302  0114                     	;# 
   303  0115                     	;# 
   304  0116                     	;# 
   305  0117                     	;# 
   306  0118                     	;# 
   307  0119                     	;# 
   308  011A                     	;# 
   309  011B                     	;# 
   310  011D                     	;# 
   311  018C                     	;# 
   312  018D                     	;# 
   313  018F                     	;# 
   314  0190                     	;# 
   315  0191                     	;# 
   316  0191                     	;# 
   317  0192                     	;# 
   318  0193                     	;# 
   319  0193                     	;# 
   320  0193                     	;# 
   321  0194                     	;# 
   322  0195                     	;# 
   323  0196                     	;# 
   324  0199                     	;# 
   325  019A                     	;# 
   326  019B                     	;# 
   327  019B                     	;# 
   328  019B                     	;# 
   329  019B                     	;# 
   330  019C                     	;# 
   331  019C                     	;# 
   332  019D                     	;# 
   333  019E                     	;# 
   334  019F                     	;# 
   335  020D                     	;# 
   336  0210                     	;# 
   337  0211                     	;# 
   338  0212                     	;# 
   339  0213                     	;# 
   340  0214                     	;# 
   341  0215                     	;# 
   342  0215                     	;# 
   343  0216                     	;# 
   344  0217                     	;# 
   345  0291                     	;# 
   346  0291                     	;# 
   347  0292                     	;# 
   348  0293                     	;# 
   349  0294                     	;# 
   350  0295                     	;# 
   351  0295                     	;# 
   352  0296                     	;# 
   353  0298                     	;# 
   354  0298                     	;# 
   355  0299                     	;# 
   356  029A                     	;# 
   357  029B                     	;# 
   358  029C                     	;# 
   359  029C                     	;# 
   360  029D                     	;# 
   361  029E                     	;# 
   362  029F                     	;# 
   363  0311                     	;# 
   364  0311                     	;# 
   365  0312                     	;# 
   366  0313                     	;# 
   367  0314                     	;# 
   368  0315                     	;# 
   369  0315                     	;# 
   370  0316                     	;# 
   371  0318                     	;# 
   372  0318                     	;# 
   373  0319                     	;# 
   374  031A                     	;# 
   375  031C                     	;# 
   376  031C                     	;# 
   377  031D                     	;# 
   378  031E                     	;# 
   379  0394                     	;# 
   380  0395                     	;# 
   381  0396                     	;# 
   382  0415                     	;# 
   383  0416                     	;# 
   384  0417                     	;# 
   385  041C                     	;# 
   386  041D                     	;# 
   387  041E                     	;# 
   388  0791                     	;# 
   389  0792                     	;# 
   390  0793                     	;# 
   391  0794                     	;# 
   392  0795                     	;# 
   393  0798                     	;# 
   394  0799                     	;# 
   395  079A                     	;# 
   396  07A0                     	;# 
   397  07A1                     	;# 
   398  07A2                     	;# 
   399  07A3                     	;# 
   400  07A4                     	;# 
   401  07A5                     	;# 
   402  07A6                     	;# 
   403  07A7                     	;# 
   404  07A8                     	;# 
   405  07A9                     	;# 
   406  07AA                     	;# 
   407  07AB                     	;# 
   408  0FE4                     	;# 
   409  0FE5                     	;# 
   410  0FE6                     	;# 
   411  0FE7                     	;# 
   412  0FE8                     	;# 
   413  0FE9                     	;# 
   414  0FEA                     	;# 
   415  0FEB                     	;# 
   416  0FED                     	;# 
   417  0FEE                     	;# 
   418  0FEF                     	;# 
   419  0000                     	;# 
   420  0001                     	;# 
   421  0002                     	;# 
   422  0003                     	;# 
   423  0004                     	;# 
   424  0005                     	;# 
   425  0006                     	;# 
   426  0007                     	;# 
   427  0008                     	;# 
   428  0009                     	;# 
   429  000A                     	;# 
   430  000B                     	;# 
   431  000C                     	;# 
   432  000D                     	;# 
   433  000E                     	;# 
   434  000F                     	;# 
   435  0010                     	;# 
   436  0011                     	;# 
   437  0012                     	;# 
   438  0013                     	;# 
   439  0015                     	;# 
   440  0016                     	;# 
   441  0016                     	;# 
   442  0017                     	;# 
   443  0018                     	;# 
   444  0019                     	;# 
   445  001A                     	;# 
   446  001B                     	;# 
   447  001C                     	;# 
   448  001E                     	;# 
   449  001F                     	;# 
   450  008C                     	;# 
   451  008D                     	;# 
   452  008E                     	;# 
   453  008F                     	;# 
   454  0090                     	;# 
   455  0091                     	;# 
   456  0092                     	;# 
   457  0093                     	;# 
   458  0095                     	;# 
   459  0096                     	;# 
   460  0097                     	;# 
   461  0098                     	;# 
   462  0099                     	;# 
   463  009A                     	;# 
   464  009B                     	;# 
   465  009B                     	;# 
   466  009C                     	;# 
   467  009D                     	;# 
   468  009E                     	;# 
   469  010C                     	;# 
   470  010D                     	;# 
   471  010E                     	;# 
   472  010F                     	;# 
   473  0110                     	;# 
   474  0111                     	;# 
   475  0112                     	;# 
   476  0113                     	;# 
   477  0114                     	;# 
   478  0115                     	;# 
   479  0116                     	;# 
   480  0117                     	;# 
   481  0118                     	;# 
   482  0119                     	;# 
   483  011A                     	;# 
   484  011B                     	;# 
   485  011D                     	;# 
   486  018C                     	;# 
   487  018D                     	;# 
   488  018F                     	;# 
   489  0190                     	;# 
   490  0191                     	;# 
   491  0191                     	;# 
   492  0192                     	;# 
   493  0193                     	;# 
   494  0193                     	;# 
   495  0193                     	;# 
   496  0194                     	;# 
   497  0195                     	;# 
   498  0196                     	;# 
   499  0199                     	;# 
   500  019A                     	;# 
   501  019B                     	;# 
   502  019B                     	;# 
   503  019B                     	;# 
   504  019B                     	;# 
   505  019C                     	;# 
   506  019C                     	;# 
   507  019D                     	;# 
   508  019E                     	;# 
   509  019F                     	;# 
   510  020D                     	;# 
   511  0210                     	;# 
   512  0211                     	;# 
   513  0212                     	;# 
   514  0213                     	;# 
   515  0214                     	;# 
   516  0215                     	;# 
   517  0215                     	;# 
   518  0216                     	;# 
   519  0217                     	;# 
   520  0291                     	;# 
   521  0291                     	;# 
   522  0292                     	;# 
   523  0293                     	;# 
   524  0294                     	;# 
   525  0295                     	;# 
   526  0295                     	;# 
   527  0296                     	;# 
   528  0298                     	;# 
   529  0298                     	;# 
   530  0299                     	;# 
   531  029A                     	;# 
   532  029B                     	;# 
   533  029C                     	;# 
   534  029C                     	;# 
   535  029D                     	;# 
   536  029E                     	;# 
   537  029F                     	;# 
   538  0311                     	;# 
   539  0311                     	;# 
   540  0312                     	;# 
   541  0313                     	;# 
   542  0314                     	;# 
   543  0315                     	;# 
   544  0315                     	;# 
   545  0316                     	;# 
   546  0318                     	;# 
   547  0318                     	;# 
   548  0319                     	;# 
   549  031A                     	;# 
   550  031C                     	;# 
   551  031C                     	;# 
   552  031D                     	;# 
   553  031E                     	;# 
   554  0394                     	;# 
   555  0395                     	;# 
   556  0396                     	;# 
   557  0415                     	;# 
   558  0416                     	;# 
   559  0417                     	;# 
   560  041C                     	;# 
   561  041D                     	;# 
   562  041E                     	;# 
   563  0791                     	;# 
   564  0792                     	;# 
   565  0793                     	;# 
   566  0794                     	;# 
   567  0795                     	;# 
   568  0798                     	;# 
   569  0799                     	;# 
   570  079A                     	;# 
   571  07A0                     	;# 
   572  07A1                     	;# 
   573  07A2                     	;# 
   574  07A3                     	;# 
   575  07A4                     	;# 
   576  07A5                     	;# 
   577  07A6                     	;# 
   578  07A7                     	;# 
   579  07A8                     	;# 
   580  07A9                     	;# 
   581  07AA                     	;# 
   582  07AB                     	;# 
   583  0FE4                     	;# 
   584  0FE5                     	;# 
   585  0FE6                     	;# 
   586  0FE7                     	;# 
   587  0FE8                     	;# 
   588  0FE9                     	;# 
   589  0FEA                     	;# 
   590  0FEB                     	;# 
   591  0FED                     	;# 
   592  0FEE                     	;# 
   593  0FEF                     	;# 
   594  0000                     	;# 
   595  0001                     	;# 
   596  0002                     	;# 
   597  0003                     	;# 
   598  0004                     	;# 
   599  0005                     	;# 
   600  0006                     	;# 
   601  0007                     	;# 
   602  0008                     	;# 
   603  0009                     	;# 
   604  000A                     	;# 
   605  000B                     	;# 
   606  000C                     	;# 
   607  000D                     	;# 
   608  000E                     	;# 
   609  000F                     	;# 
   610  0010                     	;# 
   611  0011                     	;# 
   612  0012                     	;# 
   613  0013                     	;# 
   614  0015                     	;# 
   615  0016                     	;# 
   616  0016                     	;# 
   617  0017                     	;# 
   618  0018                     	;# 
   619  0019                     	;# 
   620  001A                     	;# 
   621  001B                     	;# 
   622  001C                     	;# 
   623  001E                     	;# 
   624  001F                     	;# 
   625  008C                     	;# 
   626  008D                     	;# 
   627  008E                     	;# 
   628  008F                     	;# 
   629  0090                     	;# 
   630  0091                     	;# 
   631  0092                     	;# 
   632  0093                     	;# 
   633  0095                     	;# 
   634  0096                     	;# 
   635  0097                     	;# 
   636  0098                     	;# 
   637  0099                     	;# 
   638  009A                     	;# 
   639  009B                     	;# 
   640  009B                     	;# 
   641  009C                     	;# 
   642  009D                     	;# 
   643  009E                     	;# 
   644  010C                     	;# 
   645  010D                     	;# 
   646  010E                     	;# 
   647  010F                     	;# 
   648  0110                     	;# 
   649  0111                     	;# 
   650  0112                     	;# 
   651  0113                     	;# 
   652  0114                     	;# 
   653  0115                     	;# 
   654  0116                     	;# 
   655  0117                     	;# 
   656  0118                     	;# 
   657  0119                     	;# 
   658  011A                     	;# 
   659  011B                     	;# 
   660  011D                     	;# 
   661  018C                     	;# 
   662  018D                     	;# 
   663  018F                     	;# 
   664  0190                     	;# 
   665  0191                     	;# 
   666  0191                     	;# 
   667  0192                     	;# 
   668  0193                     	;# 
   669  0193                     	;# 
   670  0193                     	;# 
   671  0194                     	;# 
   672  0195                     	;# 
   673  0196                     	;# 
   674  0199                     	;# 
   675  019A                     	;# 
   676  019B                     	;# 
   677  019B                     	;# 
   678  019B                     	;# 
   679  019B                     	;# 
   680  019C                     	;# 
   681  019C                     	;# 
   682  019D                     	;# 
   683  019E                     	;# 
   684  019F                     	;# 
   685  020D                     	;# 
   686  0210                     	;# 
   687  0211                     	;# 
   688  0212                     	;# 
   689  0213                     	;# 
   690  0214                     	;# 
   691  0215                     	;# 
   692  0215                     	;# 
   693  0216                     	;# 
   694  0217                     	;# 
   695  0291                     	;# 
   696  0291                     	;# 
   697  0292                     	;# 
   698  0293                     	;# 
   699  0294                     	;# 
   700  0295                     	;# 
   701  0295                     	;# 
   702  0296                     	;# 
   703  0298                     	;# 
   704  0298                     	;# 
   705  0299                     	;# 
   706  029A                     	;# 
   707  029B                     	;# 
   708  029C                     	;# 
   709  029C                     	;# 
   710  029D                     	;# 
   711  029E                     	;# 
   712  029F                     	;# 
   713  0311                     	;# 
   714  0311                     	;# 
   715  0312                     	;# 
   716  0313                     	;# 
   717  0314                     	;# 
   718  0315                     	;# 
   719  0315                     	;# 
   720  0316                     	;# 
   721  0318                     	;# 
   722  0318                     	;# 
   723  0319                     	;# 
   724  031A                     	;# 
   725  031C                     	;# 
   726  031C                     	;# 
   727  031D                     	;# 
   728  031E                     	;# 
   729  0394                     	;# 
   730  0395                     	;# 
   731  0396                     	;# 
   732  0415                     	;# 
   733  0416                     	;# 
   734  0417                     	;# 
   735  041C                     	;# 
   736  041D                     	;# 
   737  041E                     	;# 
   738  0791                     	;# 
   739  0792                     	;# 
   740  0793                     	;# 
   741  0794                     	;# 
   742  0795                     	;# 
   743  0798                     	;# 
   744  0799                     	;# 
   745  079A                     	;# 
   746  07A0                     	;# 
   747  07A1                     	;# 
   748  07A2                     	;# 
   749  07A3                     	;# 
   750  07A4                     	;# 
   751  07A5                     	;# 
   752  07A6                     	;# 
   753  07A7                     	;# 
   754  07A8                     	;# 
   755  07A9                     	;# 
   756  07AA                     	;# 
   757  07AB                     	;# 
   758  0FE4                     	;# 
   759  0FE5                     	;# 
   760  0FE6                     	;# 
   761  0FE7                     	;# 
   762  0FE8                     	;# 
   763  0FE9                     	;# 
   764  0FEA                     	;# 
   765  0FEB                     	;# 
   766  0FED                     	;# 
   767  0FEE                     	;# 
   768  0FEF                     	;# 
   769  0000                     	;# 
   770  0001                     	;# 
   771  0002                     	;# 
   772  0003                     	;# 
   773  0004                     	;# 
   774  0005                     	;# 
   775  0006                     	;# 
   776  0007                     	;# 
   777  0008                     	;# 
   778  0009                     	;# 
   779  000A                     	;# 
   780  000B                     	;# 
   781  000C                     	;# 
   782  000D                     	;# 
   783  000E                     	;# 
   784  000F                     	;# 
   785  0010                     	;# 
   786  0011                     	;# 
   787  0012                     	;# 
   788  0013                     	;# 
   789  0015                     	;# 
   790  0016                     	;# 
   791  0016                     	;# 
   792  0017                     	;# 
   793  0018                     	;# 
   794  0019                     	;# 
   795  001A                     	;# 
   796  001B                     	;# 
   797  001C                     	;# 
   798  001E                     	;# 
   799  001F                     	;# 
   800  008C                     	;# 
   801  008D                     	;# 
   802  008E                     	;# 
   803  008F                     	;# 
   804  0090                     	;# 
   805  0091                     	;# 
   806  0092                     	;# 
   807  0093                     	;# 
   808  0095                     	;# 
   809  0096                     	;# 
   810  0097                     	;# 
   811  0098                     	;# 
   812  0099                     	;# 
   813  009A                     	;# 
   814  009B                     	;# 
   815  009B                     	;# 
   816  009C                     	;# 
   817  009D                     	;# 
   818  009E                     	;# 
   819  010C                     	;# 
   820  010D                     	;# 
   821  010E                     	;# 
   822  010F                     	;# 
   823  0110                     	;# 
   824  0111                     	;# 
   825  0112                     	;# 
   826  0113                     	;# 
   827  0114                     	;# 
   828  0115                     	;# 
   829  0116                     	;# 
   830  0117                     	;# 
   831  0118                     	;# 
   832  0119                     	;# 
   833  011A                     	;# 
   834  011B                     	;# 
   835  011D                     	;# 
   836  018C                     	;# 
   837  018D                     	;# 
   838  018F                     	;# 
   839  0190                     	;# 
   840  0191                     	;# 
   841  0191                     	;# 
   842  0192                     	;# 
   843  0193                     	;# 
   844  0193                     	;# 
   845  0193                     	;# 
   846  0194                     	;# 
   847  0195                     	;# 
   848  0196                     	;# 
   849  0199                     	;# 
   850  019A                     	;# 
   851  019B                     	;# 
   852  019B                     	;# 
   853  019B                     	;# 
   854  019B                     	;# 
   855  019C                     	;# 
   856  019C                     	;# 
   857  019D                     	;# 
   858  019E                     	;# 
   859  019F                     	;# 
   860  020D                     	;# 
   861  0210                     	;# 
   862  0211                     	;# 
   863  0212                     	;# 
   864  0213                     	;# 
   865  0214                     	;# 
   866  0215                     	;# 
   867  0215                     	;# 
   868  0216                     	;# 
   869  0217                     	;# 
   870  0291                     	;# 
   871  0291                     	;# 
   872  0292                     	;# 
   873  0293                     	;# 
   874  0294                     	;# 
   875  0295                     	;# 
   876  0295                     	;# 
   877  0296                     	;# 
   878  0298                     	;# 
   879  0298                     	;# 
   880  0299                     	;# 
   881  029A                     	;# 
   882  029B                     	;# 
   883  029C                     	;# 
   884  029C                     	;# 
   885  029D                     	;# 
   886  029E                     	;# 
   887  029F                     	;# 
   888  0311                     	;# 
   889  0311                     	;# 
   890  0312                     	;# 
   891  0313                     	;# 
   892  0314                     	;# 
   893  0315                     	;# 
   894  0315                     	;# 
   895  0316                     	;# 
   896  0318                     	;# 
   897  0318                     	;# 
   898  0319                     	;# 
   899  031A                     	;# 
   900  031C                     	;# 
   901  031C                     	;# 
   902  031D                     	;# 
   903  031E                     	;# 
   904  0394                     	;# 
   905  0395                     	;# 
   906  0396                     	;# 
   907  0415                     	;# 
   908  0416                     	;# 
   909  0417                     	;# 
   910  041C                     	;# 
   911  041D                     	;# 
   912  041E                     	;# 
   913  0791                     	;# 
   914  0792                     	;# 
   915  0793                     	;# 
   916  0794                     	;# 
   917  0795                     	;# 
   918  0798                     	;# 
   919  0799                     	;# 
   920  079A                     	;# 
   921  07A0                     	;# 
   922  07A1                     	;# 
   923  07A2                     	;# 
   924  07A3                     	;# 
   925  07A4                     	;# 
   926  07A5                     	;# 
   927  07A6                     	;# 
   928  07A7                     	;# 
   929  07A8                     	;# 
   930  07A9                     	;# 
   931  07AA                     	;# 
   932  07AB                     	;# 
   933  0FE4                     	;# 
   934  0FE5                     	;# 
   935  0FE6                     	;# 
   936  0FE7                     	;# 
   937  0FE8                     	;# 
   938  0FE9                     	;# 
   939  0FEA                     	;# 
   940  0FEB                     	;# 
   941  0FED                     	;# 
   942  0FEE                     	;# 
   943  0FEF                     	;# 
   944                           
   945                           	psect	idataBANK0
   946  0661                     __pidataBANK0:
   947                           
   948                           ;initializer for _year
   949  0661  3424               	retlw	36
   950  0662  3400               	retlw	0
   951                           
   952                           ;initializer for _mes
   953  0663  3412               	retlw	18
   954  0664  3400               	retlw	0
   955                           
   956                           ;initializer for _dia
   957  0665  3411               	retlw	17
   958  0666  3400               	retlw	0
   959                           
   960                           ;initializer for _ss
   961  0667  3430               	retlw	48
   962  0668  3400               	retlw	0
   963                           
   964                           ;initializer for _mm
   965  0669  3454               	retlw	84
   966  066A  3400               	retlw	0
   967                           
   968                           ;initializer for _hh
   969  066B  3423               	retlw	35
   970  066C  3400               	retlw	0
   971                           
   972                           ;initializer for _LED_STATUS
   973  066D  3408               	retlw	8
   974                           
   975                           ;initializer for _DIR_PCF
   976  066E  343F               	retlw	63
   977  008E                     _TRISCbits	set	142
   978  008F                     _TRISD	set	143
   979  0098                     _OSCTUNE	set	152
   980  0099                     _OSCCON	set	153
   981  010F                     _LATD	set	271
   982  0116                     _BORCON	set	278
   983  018F                     _ANSELD	set	399
   984  0214                     _SSPSTAT	set	532
   985  0211                     _SSPBUF	set	529
   986  0216                     _SSPCON2bits	set	534
   987  0216                     _SSPCON2	set	534
   988  0212                     _SSPADD	set	530
   989  0214                     _SSPSTATbits	set	532
   990  0215                     _SSPCON1bits	set	533
   991                           
   992                           	psect	stringtext1
   993  0800                     __pstringtext1:
   994  0800                     STR_1:
   995  0800  3455               	retlw	85	;'U'
   996  0801  3443               	retlw	67	;'C'
   997  0802  3445               	retlw	69	;'E'
   998  0803  3456               	retlw	86	;'V'
   999  0804  3441               	retlw	65	;'A'
  1000  0805  3400               	retlw	0
  1001                           
  1002                           	psect	stringtext2
  1003  0000                     __pstringtext2:
  1004                           
  1005                           	psect	cinit
  1006  07F0                     start_initialization:	
  1007                           ; #config settings
  1008                           
  1009  07F0                     __initialization:
  1010                           
  1011                           ; Initialize objects allocated to BANK0
  1012  07F0  3061               	movlw	low __pidataBANK0
  1013  07F1  0084               	movwf	4
  1014  07F2  3086               	movlw	(high __pidataBANK0)| (0+128)
  1015  07F3  0085               	movwf	5
  1016  07F4  3020               	movlw	low __pdataBANK0
  1017  07F5  0086               	movwf	6
  1018  07F6  3000               	movlw	high __pdataBANK0
  1019  07F7  0087               	movwf	7
  1020  07F8  300E               	movlw	14
  1021  07F9  3186  2639  3187   	fcall	init_ram
  1022                           
  1023                           ; Clear objects allocated to BANK0
  1024  07FC  01B8               	clrf	__pbssBANK0& (0+127)
  1025  07FD                     end_of_initialization:	
  1026                           ;End of C runtime variable initialization code
  1027                           
  1028  07FD                     __end_of__initialization:
  1029  07FD  0020               	movlb	0
  1030  07FE  3187  2FA0         	ljmp	_main	;jump to C main() function
  1031                           
  1032                           	psect	bssBANK0
  1033  0038                     __pbssBANK0:
  1034  0038                     __lcd_params:
  1035  0038                     	ds	1
  1036                           
  1037                           	psect	dataBANK0
  1038  0020                     __pdataBANK0:
  1039  0020                     _year:
  1040  0020                     	ds	2
  1041  0022                     _mes:
  1042  0022                     	ds	2
  1043  0024                     _dia:
  1044  0024                     	ds	2
  1045  0026                     _ss:
  1046  0026                     	ds	2
  1047  0028                     _mm:
  1048  0028                     	ds	2
  1049  002A                     _hh:
  1050  002A                     	ds	2
  1051  002C                     _LED_STATUS:
  1052  002C                     	ds	1
  1053  002D                     _DIR_PCF:
  1054  002D                     	ds	1
  1055                           
  1056                           	psect	inittext
  1057  0639                     init_ram:
  1058  0639  00FE               	movwf	btemp
  1059  063A                     initloop:
  1060  063A  0012               	moviw fsr0++
  1061  063B  001E               	movwi fsr1++
  1062  063C  0BFE               	decfsz	btemp,f
  1063  063D  2E3A               	goto	initloop
  1064  063E  3400               	retlw	0
  1065                           
  1066                           	psect	cstackCOMMON
  1067  0070                     __pcstackCOMMON:
  1068  0070                     ?_I2C_Init:
  1069  0070                     ??_I2C_Init:	
  1070                           ; 1 bytes @ 0x0
  1071                           
  1072  0070                     ?_I2C_LCD_Init:	
  1073                           ; 1 bytes @ 0x0
  1074                           
  1075  0070                     ?_I2C_Start:	
  1076                           ; 1 bytes @ 0x0
  1077                           
  1078  0070                     ??_I2C_Start:	
  1079                           ; 1 bytes @ 0x0
  1080                           
  1081  0070                     ?_I2C_Wr:	
  1082                           ; 1 bytes @ 0x0
  1083                           
  1084  0070                     ??_I2C_Wr:	
  1085                           ; 1 bytes @ 0x0
  1086                           
  1087  0070                     ?_I2C_Restart:	
  1088                           ; 1 bytes @ 0x0
  1089                           
  1090  0070                     ??_I2C_Restart:	
  1091                           ; 1 bytes @ 0x0
  1092                           
  1093  0070                     ?_I2C_Rd:	
  1094                           ; 1 bytes @ 0x0
  1095                           
  1096  0070                     ??_I2C_Rd:	
  1097                           ; 1 bytes @ 0x0
  1098                           
  1099  0070                     ?_I2C_Stop:	
  1100                           ; 1 bytes @ 0x0
  1101                           
  1102  0070                     ??_I2C_Stop:	
  1103                           ; 1 bytes @ 0x0
  1104                           
  1105  0070                     ?_I2C_BusStatus:	
  1106                           ; 1 bytes @ 0x0
  1107                           
  1108  0070                     ??_I2C_BusStatus:	
  1109                           ; 1 bytes @ 0x0
  1110                           
  1111  0070                     ?_I2C_LCD_Cmd:	
  1112                           ; 1 bytes @ 0x0
  1113                           
  1114  0070                     ?_main:	
  1115                           ; 1 bytes @ 0x0
  1116                           
  1117  0070                     ?_PCF_Wr:	
  1118                           ; 1 bytes @ 0x0
  1119                           
  1120  0070                     ?_sendDATA:	
  1121                           ; 1 bytes @ 0x0
  1122                           
  1123  0070                     ?_sendCMD:	
  1124                           ; 1 bytes @ 0x0
  1125                           
  1126  0070                     ?_I2C_LCD_Write_Cp:	
  1127                           ; 1 bytes @ 0x0
  1128                           
  1129  0070                     I2C_Wr@data:	
  1130                           ; 1 bytes @ 0x0
  1131                           
  1132                           
  1133                           ; 1 bytes @ 0x0
  1134  0070                     	ds	1
  1135  0071                     ??_PCF_Wr:
  1136  0071                     I2C_Rd@datoR:	
  1137                           ; 1 bytes @ 0x1
  1138                           
  1139  0071                     PCF_Wr@dato:	
  1140                           ; 1 bytes @ 0x1
  1141                           
  1142                           
  1143                           ; 1 bytes @ 0x1
  1144  0071                     	ds	1
  1145  0072                     ?_loadPCF:
  1146  0072                     loadPCF@mode:	
  1147                           ; 1 bytes @ 0x2
  1148                           
  1149                           
  1150                           ; 1 bytes @ 0x2
  1151  0072                     	ds	1
  1152  0073                     ??_loadPCF:
  1153                           
  1154                           ; 1 bytes @ 0x3
  1155  0073                     	ds	2
  1156  0075                     loadPCF@dato:
  1157                           
  1158                           ; 1 bytes @ 0x5
  1159  0075                     	ds	1
  1160  0076                     ??_sendDATA:
  1161  0076                     ??_sendCMD:	
  1162                           ; 1 bytes @ 0x6
  1163                           
  1164                           
  1165                           ; 1 bytes @ 0x6
  1166  0076                     	ds	2
  1167  0078                     sendDATA@nibbleH:
  1168  0078                     sendCMD@nibbleH:	
  1169                           ; 1 bytes @ 0x8
  1170                           
  1171                           
  1172                           ; 1 bytes @ 0x8
  1173  0078                     	ds	1
  1174  0079                     sendDATA@nibbleL:
  1175  0079                     sendCMD@nibbleL:	
  1176                           ; 1 bytes @ 0x9
  1177                           
  1178                           
  1179                           ; 1 bytes @ 0x9
  1180  0079                     	ds	1
  1181  007A                     sendDATA@dato:
  1182  007A                     sendCMD@cmd:	
  1183                           ; 1 bytes @ 0xA
  1184                           
  1185                           
  1186                           ; 1 bytes @ 0xA
  1187  007A                     	ds	1
  1188  007B                     ??_I2C_LCD_Cmd:
  1189  007B                     ??_I2C_LCD_Write_Cp:	
  1190                           ; 1 bytes @ 0xB
  1191                           
  1192  007B                     I2C_LCD_Cmd@cmd:	
  1193                           ; 1 bytes @ 0xB
  1194                           
  1195  007B                     I2C_LCD_Write_Cp@letra:	
  1196                           ; 1 bytes @ 0xB
  1197                           
  1198                           
  1199                           ; 1 bytes @ 0xB
  1200  007B                     	ds	1
  1201  007C                     ??_I2C_LCD_Init:
  1202  007C                     ?_I2C_LCD_Set_Cursor:	
  1203                           ; 1 bytes @ 0xC
  1204                           
  1205  007C                     I2C_LCD_Set_Cursor@col:	
  1206                           ; 1 bytes @ 0xC
  1207                           
  1208                           
  1209                           ; 1 bytes @ 0xC
  1210  007C                     	ds	1
  1211  007D                     ??_I2C_LCD_Write_Text:
  1212                           
  1213                           ; 1 bytes @ 0xD
  1214  007D                     	ds	1
  1215                           
  1216                           	psect	cstackBANK0
  1217  002E                     __pcstackBANK0:
  1218  002E                     ??_I2C_LCD_Set_Cursor:
  1219                           
  1220                           ; 1 bytes @ 0x0
  1221  002E                     	ds	2
  1222  0030                     I2C_LCD_Set_Cursor@fila:
  1223                           
  1224                           ; 1 bytes @ 0x2
  1225  0030                     	ds	1
  1226  0031                     I2C_LCD_Set_Cursor@pos:
  1227                           
  1228                           ; 1 bytes @ 0x3
  1229  0031                     	ds	1
  1230  0032                     ?_I2C_LCD_Write_Text:
  1231  0032                     I2C_LCD_Write_Text@col:	
  1232                           ; 1 bytes @ 0x4
  1233                           
  1234                           
  1235                           ; 1 bytes @ 0x4
  1236  0032                     	ds	1
  1237  0033                     I2C_LCD_Write_Text@text:
  1238                           
  1239                           ; 2 bytes @ 0x5
  1240  0033                     	ds	2
  1241  0035                     I2C_LCD_Write_Text@fil:
  1242                           
  1243                           ; 1 bytes @ 0x7
  1244  0035                     	ds	1
  1245  0036                     ??_main:
  1246                           
  1247                           ; 1 bytes @ 0x8
  1248  0036                     	ds	2
  1249                           
  1250                           	psect	maintext
  1251  07A0                     __pmaintext:	
  1252 ;;
  1253 ;;Main: autosize = 0, tempsize = 2, incstack = 0, save=0
  1254 ;;
  1255 ;; *************** function _main *****************
  1256 ;; Defined at:
  1257 ;;		line 11 in file "main.c"
  1258 ;; Parameters:    Size  Location     Type
  1259 ;;		None
  1260 ;; Auto vars:     Size  Location     Type
  1261 ;;		None
  1262 ;; Return value:  Size  Location     Type
  1263 ;;                  1    wreg      void 
  1264 ;; Registers used:
  1265 ;;		wreg, fsr0l, fsr0h, status,2, status,0, pclath, cstack
  1266 ;; Tracked objects:
  1267 ;;		On entry : B1F/0
  1268 ;;		On exit  : 0/0
  1269 ;;		Unchanged: 0/0
  1270 ;; Data sizes:     COMMON   BANK0   BANK1   BANK2   BANK3   BANK4   BANK5   BANK6   BANK7   BANK8   BANK9  BANK10  BANK1
      +1  BANK12
  1271 ;;      Params:         0       0       0       0       0       0       0       0       0       0       0       0       
      +0       0
  1272 ;;      Locals:         0       0       0       0       0       0       0       0       0       0       0       0       
      +0       0
  1273 ;;      Temps:          0       2       0       0       0       0       0       0       0       0       0       0       
      +0       0
  1274 ;;      Totals:         0       2       0       0       0       0       0       0       0       0       0       0       
      +0       0
  1275 ;;Total ram usage:        2 bytes
  1276 ;; Hardware stack levels required when called: 8
  1277 ;; This function calls:
  1278 ;;		_I2C_Init
  1279 ;;		_I2C_LCD_Init
  1280 ;;		_I2C_LCD_Write_Text
  1281 ;;		_I2C_Rd
  1282 ;;		_I2C_Restart
  1283 ;;		_I2C_Start
  1284 ;;		_I2C_Stop
  1285 ;;		_I2C_Wr
  1286 ;; This function is called by:
  1287 ;;		Startup code after reset
  1288 ;; This function uses a non-reentrant model
  1289 ;;
  1290                           
  1291  07A0                     _main:	
  1292                           ;psect for function _main
  1293                           
  1294  07A0                     l1153:	
  1295                           ;incstack = 0
  1296                           ; Regs used in _main: [wreg-fsr0h+status,2+status,0+pclath+cstack]
  1297                           
  1298                           
  1299                           ;main.c: 13:     OSCCON = 0x38;
  1300  07A0  3038               	movlw	56
  1301  07A1  0021               	movlb	1	; select bank1
  1302  07A2  0099               	movwf	25	;volatile
  1303  07A3                     l1155:
  1304                           
  1305                           ;main.c: 14:     OSCTUNE = 0x00;
  1306  07A3  0198               	clrf	24	;volatile
  1307  07A4                     l1157:
  1308                           
  1309                           ;main.c: 15:     BORCON = 0x00;
  1310  07A4  0022               	movlb	2	; select bank2
  1311  07A5  0196               	clrf	22	;volatile
  1312  07A6                     l1159:
  1313                           
  1314                           ;main.c: 17:     I2C_Init();
  1315  07A6  3186  2653  3187   	fcall	_I2C_Init
  1316  07A9                     l1161:
  1317                           
  1318                           ;main.c: 18:     I2C_LCD_Init();
  1319  07A9  3187  2758  3187   	fcall	_I2C_LCD_Init
  1320  07AC                     l1163:
  1321                           
  1322                           ;main.c: 19:     I2C_LCD_Write_Text(2,5,"UCEVA");
  1323  07AC  3005               	movlw	5
  1324  07AD  0020               	movlb	0	; select bank0
  1325  07AE  00B6               	movwf	??_main
  1326  07AF  0836               	movf	??_main,w
  1327  07B0  00B2               	movwf	I2C_LCD_Write_Text@col
  1328  07B1  3000               	movlw	low (STR_1| (0+32768))
  1329  07B2  00B3               	movwf	I2C_LCD_Write_Text@text
  1330  07B3  3088               	movlw	high (STR_1| (0+32768))
  1331  07B4  00B4               	movwf	I2C_LCD_Write_Text@text+1
  1332  07B5  3002               	movlw	2
  1333  07B6  3186  26D1  3187   	fcall	_I2C_LCD_Write_Text
  1334  07B9                     l1165:
  1335                           
  1336                           ;main.c: 21:     ANSELD = 0x00;
  1337  07B9  0023               	movlb	3	; select bank3
  1338  07BA  018F               	clrf	15	;volatile
  1339  07BB                     l1167:
  1340                           
  1341                           ;main.c: 22:     TRISD = 0x00;
  1342  07BB  0021               	movlb	1	; select bank1
  1343  07BC  018F               	clrf	15	;volatile
  1344  07BD                     l1169:
  1345                           
  1346                           ;main.c: 25:         I2C_Start();
  1347  07BD  3186  261B  3187   	fcall	_I2C_Start
  1348  07C0                     l1171:
  1349                           
  1350                           ;main.c: 26:         I2C_Wr(0b11010000);
  1351  07C0  30D0               	movlw	208
  1352  07C1  3186  263F  3187   	fcall	_I2C_Wr
  1353  07C4                     l1173:
  1354                           
  1355                           ;main.c: 27:         I2C_Wr(0x06);
  1356  07C4  3006               	movlw	6
  1357  07C5  3186  263F  3187   	fcall	_I2C_Wr
  1358  07C8                     l1175:
  1359                           
  1360                           ;main.c: 28:         I2C_Restart();
  1361  07C8  3186  2633  3187   	fcall	_I2C_Restart
  1362  07CB                     l1177:
  1363                           
  1364                           ;main.c: 29:         I2C_Wr(0b11010001);
  1365  07CB  30D1               	movlw	209
  1366  07CC  3186  263F  3187   	fcall	_I2C_Wr
  1367  07CF                     l1179:
  1368                           
  1369                           ;main.c: 30:         year = I2C_Rd();
  1370  07CF  3186  2680  3187   	fcall	_I2C_Rd
  1371  07D2  0020               	movlb	0	; select bank0
  1372  07D3  00B6               	movwf	??_main
  1373  07D4  01B7               	clrf	??_main+1
  1374  07D5  0836               	movf	??_main,w
  1375  07D6  00A0               	movwf	_year
  1376  07D7  0837               	movf	??_main+1,w
  1377  07D8  00A1               	movwf	_year+1
  1378  07D9                     l1181:
  1379                           
  1380                           ;main.c: 31:         I2C_Stop();
  1381  07D9  3186  2621  3187   	fcall	_I2C_Stop
  1382                           
  1383                           ;main.c: 33:         LATD = year;
  1384  07DC  0020               	movlb	0	; select bank0
  1385  07DD  0820               	movf	_year,w
  1386  07DE  0022               	movlb	2	; select bank2
  1387  07DF  008F               	movwf	15	;volatile
  1388                           
  1389                           ;main.c: 34:         _delay((unsigned long)((500)*(20000000UL/4000.0)));
  1390  07E0  300D               	movlw	13
  1391  07E1  0020               	movlb	0	; select bank0
  1392  07E2  00B7               	movwf	??_main+1
  1393  07E3  30AF               	movlw	175
  1394  07E4  00B6               	movwf	??_main
  1395  07E5  30B6               	movlw	182
  1396  07E6                     u137:
  1397  07E6  0B89               	decfsz	9,f
  1398  07E7  2FE6               	goto	u137
  1399  07E8  0BB6               	decfsz	??_main,f
  1400  07E9  2FE6               	goto	u137
  1401  07EA  0BB7               	decfsz	??_main+1,f
  1402  07EB  2FE6               	goto	u137
  1403  07EC  0000               	nop
  1404  07ED  2FBD               	goto	l1169
  1405  07EE  3180  2802         	ljmp	start
  1406  07F0                     __end_of_main:
  1407                           
  1408                           	psect	text1
  1409  0633                     __ptext1:	
  1410 ;; *************** function _I2C_Restart *****************
  1411 ;; Defined at:
  1412 ;;		line 24 in file "I2C_LIB.c"
  1413 ;; Parameters:    Size  Location     Type
  1414 ;;		None
  1415 ;; Auto vars:     Size  Location     Type
  1416 ;;		None
  1417 ;; Return value:  Size  Location     Type
  1418 ;;                  1    wreg      void 
  1419 ;; Registers used:
  1420 ;;		wreg, status,2, status,0, pclath, cstack
  1421 ;; Tracked objects:
  1422 ;;		On entry : 0/0
  1423 ;;		On exit  : 0/0
  1424 ;;		Unchanged: 0/0
  1425 ;; Data sizes:     COMMON   BANK0   BANK1   BANK2   BANK3   BANK4   BANK5   BANK6   BANK7   BANK8   BANK9  BANK10  BANK1
      +1  BANK12
  1426 ;;      Params:         0       0       0       0       0       0       0       0       0       0       0       0       
      +0       0
  1427 ;;      Locals:         0       0       0       0       0       0       0       0       0       0       0       0       
      +0       0
  1428 ;;      Temps:          0       0       0       0       0       0       0       0       0       0       0       0       
      +0       0
  1429 ;;      Totals:         0       0       0       0       0       0       0       0       0       0       0       0       
      +0       0
  1430 ;;Total ram usage:        0 bytes
  1431 ;; Hardware stack levels used: 1
  1432 ;; Hardware stack levels required when called: 1
  1433 ;; This function calls:
  1434 ;;		_I2C_BusStatus
  1435 ;; This function is called by:
  1436 ;;		_main
  1437 ;; This function uses a non-reentrant model
  1438 ;;
  1439                           
  1440  0633                     _I2C_Restart:	
  1441                           ;psect for function _I2C_Restart
  1442                           
  1443  0633                     l1135:	
  1444                           ;incstack = 0
  1445                           ; Regs used in _I2C_Restart: [wreg+status,2+status,0+pclath+cstack]
  1446                           
  1447                           
  1448                           ;I2C_LIB.c: 25:    I2C_BusStatus();
  1449  0633  3186  2647  3186   	fcall	_I2C_BusStatus
  1450  0636                     l1137:
  1451                           
  1452                           ;I2C_LIB.c: 26:    SSPCON2bits.RSEN = 1;
  1453  0636  0024               	movlb	4	; select bank4
  1454  0637  1496               	bsf	22,1	;volatile
  1455  0638                     l82:
  1456  0638  0008               	return
  1457  0639                     __end_of_I2C_Restart:
  1458                           
  1459                           	psect	text2
  1460  0680                     __ptext2:	
  1461 ;; *************** function _I2C_Rd *****************
  1462 ;; Defined at:
  1463 ;;		line 32 in file "I2C_LIB.c"
  1464 ;; Parameters:    Size  Location     Type
  1465 ;;		None
  1466 ;; Auto vars:     Size  Location     Type
  1467 ;;  datoR           1    1[COMMON] unsigned char 
  1468 ;; Return value:  Size  Location     Type
  1469 ;;                  1    wreg      unsigned char 
  1470 ;; Registers used:
  1471 ;;		wreg, status,2, status,0, pclath, cstack
  1472 ;; Tracked objects:
  1473 ;;		On entry : 0/0
  1474 ;;		On exit  : 0/0
  1475 ;;		Unchanged: 0/0
  1476 ;; Data sizes:     COMMON   BANK0   BANK1   BANK2   BANK3   BANK4   BANK5   BANK6   BANK7   BANK8   BANK9  BANK10  BANK1
      +1  BANK12
  1477 ;;      Params:         0       0       0       0       0       0       0       0       0       0       0       0       
      +0       0
  1478 ;;      Locals:         1       0       0       0       0       0       0       0       0       0       0       0       
      +0       0
  1479 ;;      Temps:          1       0       0       0       0       0       0       0       0       0       0       0       
      +0       0
  1480 ;;      Totals:         2       0       0       0       0       0       0       0       0       0       0       0       
      +0       0
  1481 ;;Total ram usage:        2 bytes
  1482 ;; Hardware stack levels used: 1
  1483 ;; Hardware stack levels required when called: 1
  1484 ;; This function calls:
  1485 ;;		_I2C_BusStatus
  1486 ;; This function is called by:
  1487 ;;		_main
  1488 ;; This function uses a non-reentrant model
  1489 ;;
  1490                           
  1491  0680                     _I2C_Rd:	
  1492                           ;psect for function _I2C_Rd
  1493                           
  1494  0680                     l1139:	
  1495                           ;incstack = 0
  1496                           ; Regs used in _I2C_Rd: [wreg+status,2+status,0+pclath+cstack]
  1497                           
  1498                           
  1499                           ;I2C_LIB.c: 33:     unsigned char datoR;;I2C_LIB.c: 34:     I2C_BusStatus();
  1500  0680  3186  2647  3186   	fcall	_I2C_BusStatus
  1501  0683                     l1141:
  1502                           
  1503                           ;I2C_LIB.c: 35:     SSPCON2bits.RCEN = 1;
  1504  0683  0024               	movlb	4	; select bank4
  1505  0684  1596               	bsf	22,3	;volatile
  1506                           
  1507                           ;I2C_LIB.c: 36:     I2C_BusStatus();
  1508  0685  3186  2647  3186   	fcall	_I2C_BusStatus
  1509  0688                     l1143:
  1510                           
  1511                           ;I2C_LIB.c: 37:     datoR = SSPBUF;
  1512  0688  0024               	movlb	4	; select bank4
  1513  0689  0811               	movf	17,w	;volatile
  1514  068A  00F0               	movwf	??_I2C_Rd
  1515  068B  0870               	movf	??_I2C_Rd,w
  1516  068C  00F1               	movwf	I2C_Rd@datoR
  1517  068D                     l1145:
  1518                           
  1519                           ;I2C_LIB.c: 38:     I2C_BusStatus();
  1520  068D  3186  2647  3186   	fcall	_I2C_BusStatus
  1521  0690                     l1147:
  1522                           
  1523                           ;I2C_LIB.c: 39:     SSPCON2bits.ACKDT = 1;
  1524  0690  0024               	movlb	4	; select bank4
  1525  0691  1696               	bsf	22,5	;volatile
  1526  0692                     l1149:
  1527                           
  1528                           ;I2C_LIB.c: 40:     SSPCON2bits.ACKEN = 1;
  1529  0692  1616               	bsf	22,4	;volatile
  1530                           
  1531                           ;I2C_LIB.c: 41:     return datoR;
  1532  0693  0871               	movf	I2C_Rd@datoR,w
  1533  0694                     l88:
  1534  0694  0008               	return
  1535  0695                     __end_of_I2C_Rd:
  1536                           
  1537                           	psect	text3
  1538  06D1                     __ptext3:	
  1539 ;; *************** function _I2C_LCD_Write_Text *****************
  1540 ;; Defined at:
  1541 ;;		line 103 in file "I2C_LCD_LIB.c"
  1542 ;; Parameters:    Size  Location     Type
  1543 ;;  fil             1    wreg     unsigned char 
  1544 ;;  col             1    4[BANK0 ] unsigned char 
  1545 ;;  text            2    5[BANK0 ] PTR unsigned char 
  1546 ;;		 -> STR_1(6), 
  1547 ;; Auto vars:     Size  Location     Type
  1548 ;;  fil             1    7[BANK0 ] unsigned char 
  1549 ;; Return value:  Size  Location     Type
  1550 ;;                  1    wreg      void 
  1551 ;; Registers used:
  1552 ;;		wreg, fsr0l, fsr0h, status,2, status,0, pclath, cstack
  1553 ;; Tracked objects:
  1554 ;;		On entry : 0/0
  1555 ;;		On exit  : 0/0
  1556 ;;		Unchanged: 0/0
  1557 ;; Data sizes:     COMMON   BANK0   BANK1   BANK2   BANK3   BANK4   BANK5   BANK6   BANK7   BANK8   BANK9  BANK10  BANK1
      +1  BANK12
  1558 ;;      Params:         0       3       0       0       0       0       0       0       0       0       0       0       
      +0       0
  1559 ;;      Locals:         0       1       0       0       0       0       0       0       0       0       0       0       
      +0       0
  1560 ;;      Temps:          1       0       0       0       0       0       0       0       0       0       0       0       
      +0       0
  1561 ;;      Totals:         1       4       0       0       0       0       0       0       0       0       0       0       
      +0       0
  1562 ;;Total ram usage:        5 bytes
  1563 ;; Hardware stack levels used: 1
  1564 ;; Hardware stack levels required when called: 7
  1565 ;; This function calls:
  1566 ;;		_I2C_LCD_Set_Cursor
  1567 ;;		_I2C_LCD_Write_Cp
  1568 ;; This function is called by:
  1569 ;;		_main
  1570 ;; This function uses a non-reentrant model
  1571 ;;
  1572                           
  1573  06D1                     _I2C_LCD_Write_Text:	
  1574                           ;psect for function _I2C_LCD_Write_Text
  1575                           
  1576                           
  1577                           ;incstack = 0
  1578                           ; Regs used in _I2C_LCD_Write_Text: [wreg-fsr0h+status,2+status,0+pclath+cstack]
  1579                           ;I2C_LCD_Write_Text@fil stored from wreg
  1580  06D1  0020               	movlb	0	; select bank0
  1581  06D2  00B5               	movwf	I2C_LCD_Write_Text@fil
  1582  06D3                     l1127:
  1583                           
  1584                           ;I2C_LCD_LIB.c: 104:     I2C_LCD_Set_Cursor(fil, col);
  1585  06D3  0832               	movf	I2C_LCD_Write_Text@col,w
  1586  06D4  00FD               	movwf	??_I2C_LCD_Write_Text
  1587  06D5  087D               	movf	??_I2C_LCD_Write_Text,w
  1588  06D6  00FC               	movwf	I2C_LCD_Set_Cursor@col
  1589  06D7  0835               	movf	I2C_LCD_Write_Text@fil,w
  1590  06D8  3187  2722  3186   	fcall	_I2C_LCD_Set_Cursor
  1591                           
  1592                           ;I2C_LCD_LIB.c: 105:     while(*text){
  1593  06DB  2EE9               	goto	l1133
  1594  06DC                     l1129:
  1595                           
  1596                           ;I2C_LCD_LIB.c: 106:         I2C_LCD_Write_Cp(*text);
  1597  06DC  0833               	movf	I2C_LCD_Write_Text@text,w
  1598  06DD  0084               	movwf	4
  1599  06DE  0834               	movf	I2C_LCD_Write_Text@text+1,w
  1600  06DF  0085               	movwf	5
  1601  06E0  0800               	movf	0,w	;code access
  1602  06E1  3186  262D  3186   	fcall	_I2C_LCD_Write_Cp
  1603  06E4                     l1131:
  1604                           
  1605                           ;I2C_LCD_LIB.c: 107:         text++;
  1606  06E4  3001               	movlw	1
  1607  06E5  0020               	movlb	0	; select bank0
  1608  06E6  07B3               	addwf	I2C_LCD_Write_Text@text,f
  1609  06E7  3000               	movlw	0
  1610  06E8  3DB4               	addwfc	I2C_LCD_Write_Text@text+1,f
  1611  06E9                     l1133:
  1612                           
  1613                           ;I2C_LCD_LIB.c: 105:     while(*text){
  1614  06E9  0020               	movlb	0	; select bank0
  1615  06EA  0833               	movf	I2C_LCD_Write_Text@text,w
  1616  06EB  0084               	movwf	4
  1617  06EC  0834               	movf	I2C_LCD_Write_Text@text+1,w
  1618  06ED  0085               	movwf	5
  1619  06EE  0012               	moviw fsr0++
  1620  06EF  1D03               	btfss	3,2
  1621  06F0  2EF2               	goto	u111
  1622  06F1  2EF3               	goto	u110
  1623  06F2                     u111:
  1624  06F2  2EDC               	goto	l1129
  1625  06F3                     u110:
  1626  06F3                     l159:
  1627  06F3  0008               	return
  1628  06F4                     __end_of_I2C_LCD_Write_Text:
  1629                           
  1630                           	psect	text4
  1631  062D                     __ptext4:	
  1632 ;; *************** function _I2C_LCD_Write_Cp *****************
  1633 ;; Defined at:
  1634 ;;		line 80 in file "I2C_LCD_LIB.c"
  1635 ;; Parameters:    Size  Location     Type
  1636 ;;  letra           1    wreg     unsigned char 
  1637 ;; Auto vars:     Size  Location     Type
  1638 ;;  letra           1   11[COMMON] unsigned char 
  1639 ;; Return value:  Size  Location     Type
  1640 ;;                  1    wreg      void 
  1641 ;; Registers used:
  1642 ;;		wreg, fsr0l, fsr0h, status,2, status,0, pclath, cstack
  1643 ;; Tracked objects:
  1644 ;;		On entry : 0/0
  1645 ;;		On exit  : 0/0
  1646 ;;		Unchanged: 0/0
  1647 ;; Data sizes:     COMMON   BANK0   BANK1   BANK2   BANK3   BANK4   BANK5   BANK6   BANK7   BANK8   BANK9  BANK10  BANK1
      +1  BANK12
  1648 ;;      Params:         0       0       0       0       0       0       0       0       0       0       0       0       
      +0       0
  1649 ;;      Locals:         1       0       0       0       0       0       0       0       0       0       0       0       
      +0       0
  1650 ;;      Temps:          0       0       0       0       0       0       0       0       0       0       0       0       
      +0       0
  1651 ;;      Totals:         1       0       0       0       0       0       0       0       0       0       0       0       
      +0       0
  1652 ;;Total ram usage:        1 bytes
  1653 ;; Hardware stack levels used: 1
  1654 ;; Hardware stack levels required when called: 5
  1655 ;; This function calls:
  1656 ;;		_sendDATA
  1657 ;; This function is called by:
  1658 ;;		_I2C_LCD_Write_Text
  1659 ;;		_I2C_LCD_Write_Text_Cp
  1660 ;;		_I2C_LCD_Write
  1661 ;; This function uses a non-reentrant model
  1662 ;;
  1663                           
  1664  062D                     _I2C_LCD_Write_Cp:	
  1665                           ;psect for function _I2C_LCD_Write_Cp
  1666                           
  1667                           
  1668                           ;incstack = 0
  1669                           ; Regs used in _I2C_LCD_Write_Cp: [wreg-fsr0h+status,2+status,0+pclath+cstack]
  1670                           ;I2C_LCD_Write_Cp@letra stored from wreg
  1671  062D  00FB               	movwf	I2C_LCD_Write_Cp@letra
  1672  062E                     l1061:
  1673                           
  1674                           ;I2C_LCD_LIB.c: 81:     sendDATA(letra);
  1675  062E  087B               	movf	I2C_LCD_Write_Cp@letra,w
  1676  062F  3186  26B2  3186   	fcall	_sendDATA
  1677  0632                     l135:
  1678  0632  0008               	return
  1679  0633                     __end_of_I2C_LCD_Write_Cp:
  1680                           
  1681                           	psect	text5
  1682  06B2                     __ptext5:	
  1683 ;; *************** function _sendDATA *****************
  1684 ;; Defined at:
  1685 ;;		line 36 in file "I2C_LCD_LIB.c"
  1686 ;; Parameters:    Size  Location     Type
  1687 ;;  dato            1    wreg     unsigned char 
  1688 ;; Auto vars:     Size  Location     Type
  1689 ;;  dato            1   10[COMMON] unsigned char 
  1690 ;;  nibbleL         1    9[COMMON] unsigned char 
  1691 ;;  nibbleH         1    8[COMMON] unsigned char 
  1692 ;; Return value:  Size  Location     Type
  1693 ;;                  1    wreg      void 
  1694 ;; Registers used:
  1695 ;;		wreg, fsr0l, fsr0h, status,2, status,0, pclath, cstack
  1696 ;; Tracked objects:
  1697 ;;		On entry : 0/0
  1698 ;;		On exit  : 0/0
  1699 ;;		Unchanged: 0/0
  1700 ;; Data sizes:     COMMON   BANK0   BANK1   BANK2   BANK3   BANK4   BANK5   BANK6   BANK7   BANK8   BANK9  BANK10  BANK1
      +1  BANK12
  1701 ;;      Params:         0       0       0       0       0       0       0       0       0       0       0       0       
      +0       0
  1702 ;;      Locals:         3       0       0       0       0       0       0       0       0       0       0       0       
      +0       0
  1703 ;;      Temps:          2       0       0       0       0       0       0       0       0       0       0       0       
      +0       0
  1704 ;;      Totals:         5       0       0       0       0       0       0       0       0       0       0       0       
      +0       0
  1705 ;;Total ram usage:        5 bytes
  1706 ;; Hardware stack levels used: 1
  1707 ;; Hardware stack levels required when called: 4
  1708 ;; This function calls:
  1709 ;;		_loadPCF
  1710 ;; This function is called by:
  1711 ;;		_I2C_LCD_Write_Cp
  1712 ;; This function uses a non-reentrant model
  1713 ;;
  1714                           
  1715  06B2                     _sendDATA:	
  1716                           ;psect for function _sendDATA
  1717                           
  1718                           
  1719                           ;incstack = 0
  1720                           ; Regs used in _sendDATA: [wreg-fsr0h+status,2+status,0+pclath+cstack]
  1721                           ;sendDATA@dato stored from wreg
  1722  06B2  00FA               	movwf	sendDATA@dato
  1723  06B3                     l1051:
  1724                           
  1725                           ;I2C_LCD_LIB.c: 37:     char nibbleH, nibbleL;;I2C_LCD_LIB.c: 39:     nibbleH = (dato & 
      +                          0xF0)<<0;
  1726  06B3  087A               	movf	sendDATA@dato,w
  1727  06B4  39F0               	andlw	240
  1728  06B5  00F6               	movwf	??_sendDATA
  1729  06B6  0876               	movf	??_sendDATA,w
  1730  06B7  00F8               	movwf	sendDATA@nibbleH
  1731  06B8                     l1053:
  1732                           
  1733                           ;I2C_LCD_LIB.c: 40:     nibbleL = (dato & 0x0F)<<4;
  1734  06B8  087A               	movf	sendDATA@dato,w
  1735  06B9  390F               	andlw	15
  1736  06BA  00F6               	movwf	??_sendDATA
  1737  06BB  3003               	movlw	3
  1738  06BC                     u105:
  1739  06BC  35F6               	lslf	??_sendDATA,f
  1740  06BD  3EFF               	addlw	-1
  1741  06BE  1D03               	skipz
  1742  06BF  2EBC               	goto	u105
  1743  06C0  3576               	lslf	??_sendDATA,w
  1744  06C1  00F7               	movwf	??_sendDATA+1
  1745  06C2  0877               	movf	??_sendDATA+1,w
  1746  06C3  00F9               	movwf	sendDATA@nibbleL
  1747  06C4                     l1055:
  1748                           
  1749                           ;I2C_LCD_LIB.c: 42:     loadPCF(nibbleH,1);
  1750  06C4  01F2               	clrf	loadPCF@mode
  1751  06C5  0AF2               	incf	loadPCF@mode,f
  1752  06C6  0878               	movf	sendDATA@nibbleH,w
  1753  06C7  3186  26F4  3186   	fcall	_loadPCF
  1754  06CA                     l1057:
  1755                           
  1756                           ;I2C_LCD_LIB.c: 43:     loadPCF(nibbleL,1);
  1757  06CA  01F2               	clrf	loadPCF@mode
  1758  06CB  0AF2               	incf	loadPCF@mode,f
  1759  06CC  0879               	movf	sendDATA@nibbleL,w
  1760  06CD  3186  26F4  3186   	fcall	_loadPCF
  1761  06D0                     l123:
  1762  06D0  0008               	return
  1763  06D1                     __end_of_sendDATA:
  1764                           
  1765                           	psect	text6
  1766  0722                     __ptext6:	
  1767 ;; *************** function _I2C_LCD_Set_Cursor *****************
  1768 ;; Defined at:
  1769 ;;		line 89 in file "I2C_LCD_LIB.c"
  1770 ;; Parameters:    Size  Location     Type
  1771 ;;  fila            1    wreg     unsigned char 
  1772 ;;  col             1   12[COMMON] unsigned char 
  1773 ;; Auto vars:     Size  Location     Type
  1774 ;;  fila            1    2[BANK0 ] unsigned char 
  1775 ;;  pos             1    3[BANK0 ] unsigned char 
  1776 ;; Return value:  Size  Location     Type
  1777 ;;                  1    wreg      void 
  1778 ;; Registers used:
  1779 ;;		wreg, fsr0l, fsr0h, status,2, status,0, pclath, cstack
  1780 ;; Tracked objects:
  1781 ;;		On entry : 0/0
  1782 ;;		On exit  : 0/0
  1783 ;;		Unchanged: 0/0
  1784 ;; Data sizes:     COMMON   BANK0   BANK1   BANK2   BANK3   BANK4   BANK5   BANK6   BANK7   BANK8   BANK9  BANK10  BANK1
      +1  BANK12
  1785 ;;      Params:         1       0       0       0       0       0       0       0       0       0       0       0       
      +0       0
  1786 ;;      Locals:         0       2       0       0       0       0       0       0       0       0       0       0       
      +0       0
  1787 ;;      Temps:          0       2       0       0       0       0       0       0       0       0       0       0       
      +0       0
  1788 ;;      Totals:         1       4       0       0       0       0       0       0       0       0       0       0       
      +0       0
  1789 ;;Total ram usage:        5 bytes
  1790 ;; Hardware stack levels used: 1
  1791 ;; Hardware stack levels required when called: 6
  1792 ;; This function calls:
  1793 ;;		_I2C_LCD_Cmd
  1794 ;; This function is called by:
  1795 ;;		_I2C_LCD_Write_Text
  1796 ;;		_I2C_LCD_Write
  1797 ;; This function uses a non-reentrant model
  1798 ;;
  1799                           
  1800  0722                     _I2C_LCD_Set_Cursor:	
  1801                           ;psect for function _I2C_LCD_Set_Cursor
  1802                           
  1803                           
  1804                           ;incstack = 0
  1805                           ; Regs used in _I2C_LCD_Set_Cursor: [wreg-fsr0h+status,2+status,0+pclath+cstack]
  1806                           ;I2C_LCD_Set_Cursor@fila stored from wreg
  1807  0722  0020               	movlb	0	; select bank0
  1808  0723  00B0               	movwf	I2C_LCD_Set_Cursor@fila
  1809  0724                     l1063:
  1810                           
  1811                           ;I2C_LCD_LIB.c: 90:     char pos;;I2C_LCD_LIB.c: 91:     switch(fila){
  1812  0724  2F3D               	goto	l1075
  1813  0725                     l1065:
  1814  0725  087C               	movf	I2C_LCD_Set_Cursor@col,w
  1815  0726  3E7F               	addlw	127
  1816  0727  00AE               	movwf	??_I2C_LCD_Set_Cursor
  1817  0728  082E               	movf	??_I2C_LCD_Set_Cursor,w
  1818  0729  00B1               	movwf	I2C_LCD_Set_Cursor@pos
  1819  072A  2F53               	goto	l1077
  1820  072B                     l1067:
  1821  072B  087C               	movf	I2C_LCD_Set_Cursor@col,w
  1822  072C  3EBF               	addlw	191
  1823  072D  00AE               	movwf	??_I2C_LCD_Set_Cursor
  1824  072E  082E               	movf	??_I2C_LCD_Set_Cursor,w
  1825  072F  00B1               	movwf	I2C_LCD_Set_Cursor@pos
  1826  0730  2F53               	goto	l1077
  1827  0731                     l1069:
  1828  0731  087C               	movf	I2C_LCD_Set_Cursor@col,w
  1829  0732  3E93               	addlw	147
  1830  0733  00AE               	movwf	??_I2C_LCD_Set_Cursor
  1831  0734  082E               	movf	??_I2C_LCD_Set_Cursor,w
  1832  0735  00B1               	movwf	I2C_LCD_Set_Cursor@pos
  1833  0736  2F53               	goto	l1077
  1834  0737                     l1071:
  1835  0737  087C               	movf	I2C_LCD_Set_Cursor@col,w
  1836  0738  3ED3               	addlw	211
  1837  0739  00AE               	movwf	??_I2C_LCD_Set_Cursor
  1838  073A  082E               	movf	??_I2C_LCD_Set_Cursor,w
  1839  073B  00B1               	movwf	I2C_LCD_Set_Cursor@pos
  1840  073C  2F53               	goto	l1077
  1841  073D                     l1075:
  1842  073D  0830               	movf	I2C_LCD_Set_Cursor@fila,w
  1843  073E  00AE               	movwf	??_I2C_LCD_Set_Cursor
  1844  073F  01AF               	clrf	??_I2C_LCD_Set_Cursor+1
  1845                           
  1846                           ; Switch on 2 bytes has been partitioned into a top level switch of size 1, and 1 sub-sw
      +                          itches
  1847                           ; Switch size 1, requested type "simple"
  1848                           ; Number of cases is 1, Range of values is 0 to 0
  1849                           ; switch strategies available:
  1850                           ; Name         Instructions Cycles
  1851                           ; simple_byte            4     3 (average)
  1852                           ; direct_byte            8     6 (fixed)
  1853                           ; jumptable            260     6 (fixed)
  1854                           ;	Chosen strategy is simple_byte
  1855  0740  082F               	movf	??_I2C_LCD_Set_Cursor+1,w
  1856  0741  3A00               	xorlw	0	; case 0
  1857  0742  1903               	skipnz
  1858  0743  2F45               	goto	l1243
  1859  0744  2F53               	goto	l1077
  1860  0745                     l1243:
  1861                           
  1862                           ; Switch size 1, requested type "simple"
  1863                           ; Number of cases is 4, Range of values is 1 to 4
  1864                           ; switch strategies available:
  1865                           ; Name         Instructions Cycles
  1866                           ; simple_byte           13     7 (average)
  1867                           ; direct_byte           17     9 (fixed)
  1868                           ; jumptable            263     9 (fixed)
  1869                           ;	Chosen strategy is simple_byte
  1870  0745  082E               	movf	??_I2C_LCD_Set_Cursor,w
  1871  0746  3A01               	xorlw	1	; case 1
  1872  0747  1903               	skipnz
  1873  0748  2F25               	goto	l1065
  1874  0749  3A03               	xorlw	3	; case 2
  1875  074A  1903               	skipnz
  1876  074B  2F2B               	goto	l1067
  1877  074C  3A01               	xorlw	1	; case 3
  1878  074D  1903               	skipnz
  1879  074E  2F31               	goto	l1069
  1880  074F  3A07               	xorlw	7	; case 4
  1881  0750  1903               	skipnz
  1882  0751  2F37               	goto	l1071
  1883  0752  2F53               	goto	l1077
  1884  0753                     l1077:
  1885                           
  1886                           ;I2C_LCD_LIB.c: 97:     I2C_LCD_Cmd(pos);
  1887  0753  0831               	movf	I2C_LCD_Set_Cursor@pos,w
  1888  0754  3186  2627  3187   	fcall	_I2C_LCD_Cmd
  1889  0757                     l150:
  1890  0757  0008               	return
  1891  0758                     __end_of_I2C_LCD_Set_Cursor:
  1892                           
  1893                           	psect	text7
  1894  0758                     __ptext7:	
  1895 ;; *************** function _I2C_LCD_Init *****************
  1896 ;; Defined at:
  1897 ;;		line 57 in file "I2C_LCD_LIB.c"
  1898 ;; Parameters:    Size  Location     Type
  1899 ;;		None
  1900 ;; Auto vars:     Size  Location     Type
  1901 ;;		None
  1902 ;; Return value:  Size  Location     Type
  1903 ;;                  1    wreg      void 
  1904 ;; Registers used:
  1905 ;;		wreg, fsr0l, fsr0h, status,2, status,0, pclath, cstack
  1906 ;; Tracked objects:
  1907 ;;		On entry : 0/0
  1908 ;;		On exit  : 0/0
  1909 ;;		Unchanged: 0/0
  1910 ;; Data sizes:     COMMON   BANK0   BANK1   BANK2   BANK3   BANK4   BANK5   BANK6   BANK7   BANK8   BANK9  BANK10  BANK1
      +1  BANK12
  1911 ;;      Params:         0       0       0       0       0       0       0       0       0       0       0       0       
      +0       0
  1912 ;;      Locals:         0       0       0       0       0       0       0       0       0       0       0       0       
      +0       0
  1913 ;;      Temps:          1       0       0       0       0       0       0       0       0       0       0       0       
      +0       0
  1914 ;;      Totals:         1       0       0       0       0       0       0       0       0       0       0       0       
      +0       0
  1915 ;;Total ram usage:        1 bytes
  1916 ;; Hardware stack levels used: 1
  1917 ;; Hardware stack levels required when called: 6
  1918 ;; This function calls:
  1919 ;;		_I2C_LCD_Cmd
  1920 ;;		_PCF_Wr
  1921 ;;		_sendCMD
  1922 ;; This function is called by:
  1923 ;;		_main
  1924 ;; This function uses a non-reentrant model
  1925 ;;
  1926                           
  1927  0758                     _I2C_LCD_Init:	
  1928                           ;psect for function _I2C_LCD_Init
  1929                           
  1930  0758                     l1097:	
  1931                           ;incstack = 0
  1932                           ; Regs used in _I2C_LCD_Init: [wreg-fsr0h+status,2+status,0+pclath+cstack]
  1933                           
  1934                           
  1935                           ;I2C_LCD_LIB.c: 58:     PCF_Wr(0x00);
  1936  0758  3000               	movlw	0
  1937  0759  3186  266F  3187   	fcall	_PCF_Wr
  1938  075C                     l1099:
  1939                           
  1940                           ;I2C_LCD_LIB.c: 59:     _delay((unsigned long)((15)*(20000000UL/4000.0)));
  1941  075C  3062               	movlw	98
  1942  075D  00FC               	movwf	??_I2C_LCD_Init
  1943  075E  3066               	movlw	102
  1944  075F                     u147:
  1945  075F  0B89               	decfsz	9,f
  1946  0760  2F5F               	goto	u147
  1947  0761  0BFC               	decfsz	??_I2C_LCD_Init,f
  1948  0762  2F5F               	goto	u147
  1949  0763                     l1101:
  1950                           
  1951                           ;I2C_LCD_LIB.c: 60:     sendCMD(0x03);
  1952  0763  3003               	movlw	3
  1953  0764  3186  2695  3187   	fcall	_sendCMD
  1954  0767                     l1103:
  1955                           
  1956                           ;I2C_LCD_LIB.c: 61:     _delay((unsigned long)((5)*(20000000UL/4000.0)));
  1957  0767  3021               	movlw	33
  1958  0768  00FC               	movwf	??_I2C_LCD_Init
  1959  0769  3076               	movlw	118
  1960  076A                     u157:
  1961  076A  0B89               	decfsz	9,f
  1962  076B  2F6A               	goto	u157
  1963  076C  0BFC               	decfsz	??_I2C_LCD_Init,f
  1964  076D  2F6A               	goto	u157
  1965  076E  3200               	nop2
  1966  076F                     l1105:
  1967                           
  1968                           ;I2C_LCD_LIB.c: 62:     sendCMD(0x03);
  1969  076F  3003               	movlw	3
  1970  0770  3186  2695  3187   	fcall	_sendCMD
  1971  0773                     l1107:
  1972                           
  1973                           ;I2C_LCD_LIB.c: 63:     _delay((unsigned long)((100)*(20000000UL/4000000.0)));
  1974  0773  30A6               	movlw	166
  1975  0774                     u167:
  1976  0774  0B89               	decfsz	9,f
  1977  0775  2F74               	goto	u167
  1978  0776  3200               	nop2
  1979  0777                     l1109:
  1980                           
  1981                           ;I2C_LCD_LIB.c: 64:     sendCMD(0x03);
  1982  0777  3003               	movlw	3
  1983  0778  3186  2695  3187   	fcall	_sendCMD
  1984  077B                     l1111:
  1985                           
  1986                           ;I2C_LCD_LIB.c: 65:     sendCMD(0x02);
  1987  077B  3002               	movlw	2
  1988  077C  3186  2695  3187   	fcall	_sendCMD
  1989  077F                     l1113:
  1990                           
  1991                           ;I2C_LCD_LIB.c: 67:     I2C_LCD_Cmd( 0x20 | 0x00 | 0x08 | 0x00 );
  1992  077F  3028               	movlw	40
  1993  0780  3186  2627  3187   	fcall	_I2C_LCD_Cmd
  1994  0783                     l1115:
  1995                           
  1996                           ;I2C_LCD_LIB.c: 68:     _delay((unsigned long)((37)*(20000000UL/4000000.0)));
  1997  0783  303D               	movlw	61
  1998  0784                     u177:
  1999  0784  0B89               	decfsz	9,f
  2000  0785  2F84               	goto	u177
  2001  0786  3200               	nop2
  2002  0787                     l1117:
  2003                           
  2004                           ;I2C_LCD_LIB.c: 70:     _lcd_params = 0x04 | 0x02 | 0x01;
  2005  0787  3007               	movlw	7
  2006  0788  00FC               	movwf	??_I2C_LCD_Init
  2007  0789  087C               	movf	??_I2C_LCD_Init,w
  2008  078A  0020               	movlb	0	; select bank0
  2009  078B  00B8               	movwf	__lcd_params
  2010  078C                     l1119:
  2011                           
  2012                           ;I2C_LCD_LIB.c: 71:     I2C_LCD_Cmd(0x08 | _lcd_params);
  2013  078C  300F               	movlw	15
  2014  078D  3186  2627  3187   	fcall	_I2C_LCD_Cmd
  2015  0790                     l1121:
  2016                           
  2017                           ;I2C_LCD_LIB.c: 72:     _delay((unsigned long)((37)*(20000000UL/4000000.0)));
  2018  0790  303D               	movlw	61
  2019  0791                     u187:
  2020  0791  0B89               	decfsz	9,f
  2021  0792  2F91               	goto	u187
  2022  0793  3200               	nop2
  2023  0794                     l1123:
  2024                           
  2025                           ;I2C_LCD_LIB.c: 74:     I2C_LCD_Cmd(0x01);
  2026  0794  3001               	movlw	1
  2027  0795  3186  2627  3187   	fcall	_I2C_LCD_Cmd
  2028  0798                     l1125:
  2029                           
  2030                           ;I2C_LCD_LIB.c: 75:     _delay((unsigned long)((2)*(20000000UL/4000.0)));
  2031  0798  300D               	movlw	13
  2032  0799  00FC               	movwf	??_I2C_LCD_Init
  2033  079A  30FC               	movlw	252
  2034  079B                     u197:
  2035  079B  0B89               	decfsz	9,f
  2036  079C  2F9B               	goto	u197
  2037  079D  0BFC               	decfsz	??_I2C_LCD_Init,f
  2038  079E  2F9B               	goto	u197
  2039  079F                     l129:
  2040  079F  0008               	return
  2041  07A0                     __end_of_I2C_LCD_Init:
  2042                           
  2043                           	psect	text8
  2044  0627                     __ptext8:	
  2045 ;; *************** function _I2C_LCD_Cmd *****************
  2046 ;; Defined at:
  2047 ;;		line 77 in file "I2C_LCD_LIB.c"
  2048 ;; Parameters:    Size  Location     Type
  2049 ;;  cmd             1    wreg     unsigned char 
  2050 ;; Auto vars:     Size  Location     Type
  2051 ;;  cmd             1   11[COMMON] unsigned char 
  2052 ;; Return value:  Size  Location     Type
  2053 ;;                  1    wreg      void 
  2054 ;; Registers used:
  2055 ;;		wreg, fsr0l, fsr0h, status,2, status,0, pclath, cstack
  2056 ;; Tracked objects:
  2057 ;;		On entry : 0/0
  2058 ;;		On exit  : 0/0
  2059 ;;		Unchanged: 0/0
  2060 ;; Data sizes:     COMMON   BANK0   BANK1   BANK2   BANK3   BANK4   BANK5   BANK6   BANK7   BANK8   BANK9  BANK10  BANK1
      +1  BANK12
  2061 ;;      Params:         0       0       0       0       0       0       0       0       0       0       0       0       
      +0       0
  2062 ;;      Locals:         1       0       0       0       0       0       0       0       0       0       0       0       
      +0       0
  2063 ;;      Temps:          0       0       0       0       0       0       0       0       0       0       0       0       
      +0       0
  2064 ;;      Totals:         1       0       0       0       0       0       0       0       0       0       0       0       
      +0       0
  2065 ;;Total ram usage:        1 bytes
  2066 ;; Hardware stack levels used: 1
  2067 ;; Hardware stack levels required when called: 5
  2068 ;; This function calls:
  2069 ;;		_sendCMD
  2070 ;; This function is called by:
  2071 ;;		_I2C_LCD_Init
  2072 ;;		_I2C_LCD_Set_Cursor
  2073 ;; This function uses a non-reentrant model
  2074 ;;
  2075                           
  2076  0627                     _I2C_LCD_Cmd:	
  2077                           ;psect for function _I2C_LCD_Cmd
  2078                           
  2079                           
  2080                           ;incstack = 0
  2081                           ; Regs used in _I2C_LCD_Cmd: [wreg-fsr0h+status,2+status,0+pclath+cstack]
  2082                           ;I2C_LCD_Cmd@cmd stored from wreg
  2083  0627  00FB               	movwf	I2C_LCD_Cmd@cmd
  2084  0628                     l1059:
  2085                           
  2086                           ;I2C_LCD_LIB.c: 78:     sendCMD(cmd);
  2087  0628  087B               	movf	I2C_LCD_Cmd@cmd,w
  2088  0629  3186  2695  3186   	fcall	_sendCMD
  2089  062C                     l132:
  2090  062C  0008               	return
  2091  062D                     __end_of_I2C_LCD_Cmd:
  2092                           
  2093                           	psect	text9
  2094  0695                     __ptext9:	
  2095 ;; *************** function _sendCMD *****************
  2096 ;; Defined at:
  2097 ;;		line 45 in file "I2C_LCD_LIB.c"
  2098 ;; Parameters:    Size  Location     Type
  2099 ;;  cmd             1    wreg     unsigned char 
  2100 ;; Auto vars:     Size  Location     Type
  2101 ;;  cmd             1   10[COMMON] unsigned char 
  2102 ;;  nibbleL         1    9[COMMON] unsigned char 
  2103 ;;  nibbleH         1    8[COMMON] unsigned char 
  2104 ;; Return value:  Size  Location     Type
  2105 ;;                  1    wreg      void 
  2106 ;; Registers used:
  2107 ;;		wreg, fsr0l, fsr0h, status,2, status,0, pclath, cstack
  2108 ;; Tracked objects:
  2109 ;;		On entry : 0/0
  2110 ;;		On exit  : 0/0
  2111 ;;		Unchanged: 0/0
  2112 ;; Data sizes:     COMMON   BANK0   BANK1   BANK2   BANK3   BANK4   BANK5   BANK6   BANK7   BANK8   BANK9  BANK10  BANK1
      +1  BANK12
  2113 ;;      Params:         0       0       0       0       0       0       0       0       0       0       0       0       
      +0       0
  2114 ;;      Locals:         3       0       0       0       0       0       0       0       0       0       0       0       
      +0       0
  2115 ;;      Temps:          2       0       0       0       0       0       0       0       0       0       0       0       
      +0       0
  2116 ;;      Totals:         5       0       0       0       0       0       0       0       0       0       0       0       
      +0       0
  2117 ;;Total ram usage:        5 bytes
  2118 ;; Hardware stack levels used: 1
  2119 ;; Hardware stack levels required when called: 4
  2120 ;; This function calls:
  2121 ;;		_loadPCF
  2122 ;; This function is called by:
  2123 ;;		_I2C_LCD_Init
  2124 ;;		_I2C_LCD_Cmd
  2125 ;; This function uses a non-reentrant model
  2126 ;;
  2127                           
  2128  0695                     _sendCMD:	
  2129                           ;psect for function _sendCMD
  2130                           
  2131                           
  2132                           ;incstack = 0
  2133                           ; Regs used in _sendCMD: [wreg-fsr0h+status,2+status,0+pclath+cstack]
  2134                           ;sendCMD@cmd stored from wreg
  2135  0695  00FA               	movwf	sendCMD@cmd
  2136  0696                     l1043:
  2137                           
  2138                           ;I2C_LCD_LIB.c: 46:     char nibbleH, nibbleL;;I2C_LCD_LIB.c: 48:     nibbleH = (cmd & 0
      +                          xF0)<<0;
  2139  0696  087A               	movf	sendCMD@cmd,w
  2140  0697  39F0               	andlw	240
  2141  0698  00F6               	movwf	??_sendCMD
  2142  0699  0876               	movf	??_sendCMD,w
  2143  069A  00F8               	movwf	sendCMD@nibbleH
  2144  069B                     l1045:
  2145                           
  2146                           ;I2C_LCD_LIB.c: 49:     nibbleL = (cmd & 0x0F)<<4;
  2147  069B  087A               	movf	sendCMD@cmd,w
  2148  069C  390F               	andlw	15
  2149  069D  00F6               	movwf	??_sendCMD
  2150  069E  3003               	movlw	3
  2151  069F                     u95:
  2152  069F  35F6               	lslf	??_sendCMD,f
  2153  06A0  3EFF               	addlw	-1
  2154  06A1  1D03               	skipz
  2155  06A2  2E9F               	goto	u95
  2156  06A3  3576               	lslf	??_sendCMD,w
  2157  06A4  00F7               	movwf	??_sendCMD+1
  2158  06A5  0877               	movf	??_sendCMD+1,w
  2159  06A6  00F9               	movwf	sendCMD@nibbleL
  2160  06A7                     l1047:
  2161                           
  2162                           ;I2C_LCD_LIB.c: 51:     loadPCF(nibbleH,0);
  2163  06A7  01F2               	clrf	loadPCF@mode
  2164  06A8  0878               	movf	sendCMD@nibbleH,w
  2165  06A9  3186  26F4  3186   	fcall	_loadPCF
  2166  06AC                     l1049:
  2167                           
  2168                           ;I2C_LCD_LIB.c: 52:     loadPCF(nibbleL,0);
  2169  06AC  01F2               	clrf	loadPCF@mode
  2170  06AD  0879               	movf	sendCMD@nibbleL,w
  2171  06AE  3186  26F4  3186   	fcall	_loadPCF
  2172  06B1                     l126:
  2173  06B1  0008               	return
  2174  06B2                     __end_of_sendCMD:
  2175                           
  2176                           	psect	text10
  2177  06F4                     __ptext10:	
  2178 ;; *************** function _loadPCF *****************
  2179 ;; Defined at:
  2180 ;;		line 20 in file "I2C_LCD_LIB.c"
  2181 ;; Parameters:    Size  Location     Type
  2182 ;;  dato            1    wreg     unsigned char 
  2183 ;;  mode            1    2[COMMON] unsigned char 
  2184 ;; Auto vars:     Size  Location     Type
  2185 ;;  dato            1    5[COMMON] unsigned char 
  2186 ;; Return value:  Size  Location     Type
  2187 ;;                  1    wreg      void 
  2188 ;; Registers used:
  2189 ;;		wreg, fsr0l, fsr0h, status,2, status,0, pclath, cstack
  2190 ;; Tracked objects:
  2191 ;;		On entry : 0/0
  2192 ;;		On exit  : 0/0
  2193 ;;		Unchanged: 0/0
  2194 ;; Data sizes:     COMMON   BANK0   BANK1   BANK2   BANK3   BANK4   BANK5   BANK6   BANK7   BANK8   BANK9  BANK10  BANK1
      +1  BANK12
  2195 ;;      Params:         1       0       0       0       0       0       0       0       0       0       0       0       
      +0       0
  2196 ;;      Locals:         1       0       0       0       0       0       0       0       0       0       0       0       
      +0       0
  2197 ;;      Temps:          2       0       0       0       0       0       0       0       0       0       0       0       
      +0       0
  2198 ;;      Totals:         4       0       0       0       0       0       0       0       0       0       0       0       
      +0       0
  2199 ;;Total ram usage:        4 bytes
  2200 ;; Hardware stack levels used: 1
  2201 ;; Hardware stack levels required when called: 3
  2202 ;; This function calls:
  2203 ;;		_PCF_Wr
  2204 ;; This function is called by:
  2205 ;;		_sendDATA
  2206 ;;		_sendCMD
  2207 ;; This function uses a non-reentrant model
  2208 ;;
  2209                           
  2210  06F4                     _loadPCF:	
  2211                           ;psect for function _loadPCF
  2212                           
  2213                           
  2214                           ;incstack = 0
  2215                           ; Regs used in _loadPCF: [wreg-fsr0h+status,2+status,0+pclath+cstack]
  2216                           ;loadPCF@dato stored from wreg
  2217  06F4  00F5               	movwf	loadPCF@dato
  2218  06F5                     l1019:
  2219                           
  2220                           ;I2C_LCD_LIB.c: 22:     switch(mode){
  2221  06F5  2EFD               	goto	l1027
  2222  06F6                     l1021:
  2223  06F6  30FE               	movlw	254
  2224  06F7  00F3               	movwf	??_loadPCF
  2225  06F8  0873               	movf	??_loadPCF,w
  2226  06F9  05F5               	andwf	loadPCF@dato,f
  2227  06FA  2F0D               	goto	l1029
  2228  06FB                     l1023:
  2229  06FB  1475               	bsf	loadPCF@dato,0
  2230  06FC  2F0D               	goto	l1029
  2231  06FD                     l1027:
  2232  06FD  0872               	movf	loadPCF@mode,w
  2233  06FE  00F3               	movwf	??_loadPCF
  2234  06FF  01F4               	clrf	??_loadPCF+1
  2235                           
  2236                           ; Switch on 2 bytes has been partitioned into a top level switch of size 1, and 1 sub-sw
      +                          itches
  2237                           ; Switch size 1, requested type "simple"
  2238                           ; Number of cases is 1, Range of values is 0 to 0
  2239                           ; switch strategies available:
  2240                           ; Name         Instructions Cycles
  2241                           ; simple_byte            4     3 (average)
  2242                           ; direct_byte            8     6 (fixed)
  2243                           ; jumptable            260     6 (fixed)
  2244                           ;	Chosen strategy is simple_byte
  2245  0700  0874               	movf	??_loadPCF+1,w
  2246  0701  3A00               	xorlw	0	; case 0
  2247  0702  1903               	skipnz
  2248  0703  2F05               	goto	l1245
  2249  0704  2F0D               	goto	l1029
  2250  0705                     l1245:
  2251                           
  2252                           ; Switch size 1, requested type "simple"
  2253                           ; Number of cases is 2, Range of values is 0 to 1
  2254                           ; switch strategies available:
  2255                           ; Name         Instructions Cycles
  2256                           ; simple_byte            7     4 (average)
  2257                           ; direct_byte           10     6 (fixed)
  2258                           ; jumptable            260     6 (fixed)
  2259                           ;	Chosen strategy is simple_byte
  2260  0705  0873               	movf	??_loadPCF,w
  2261  0706  3A00               	xorlw	0	; case 0
  2262  0707  1903               	skipnz
  2263  0708  2EF6               	goto	l1021
  2264  0709  3A01               	xorlw	1	; case 1
  2265  070A  1903               	skipnz
  2266  070B  2EFB               	goto	l1023
  2267  070C  2F0D               	goto	l1029
  2268  070D                     l1029:
  2269                           
  2270                           ;I2C_LCD_LIB.c: 27:     PCF_Wr(dato);
  2271  070D  0875               	movf	loadPCF@dato,w
  2272  070E  3186  266F  3186   	fcall	_PCF_Wr
  2273  0711                     l1031:
  2274                           
  2275                           ;I2C_LCD_LIB.c: 28:     dato |= (1<<2);
  2276  0711  1575               	bsf	loadPCF@dato,2
  2277                           
  2278                           ;I2C_LCD_LIB.c: 29:     PCF_Wr(dato);
  2279  0712  0875               	movf	loadPCF@dato,w
  2280  0713  3186  266F  3186   	fcall	_PCF_Wr
  2281  0716                     l1033:
  2282                           
  2283                           ;I2C_LCD_LIB.c: 30:     dato &= ~(1<<2);
  2284  0716  30FB               	movlw	251
  2285  0717  00F3               	movwf	??_loadPCF
  2286  0718  0873               	movf	??_loadPCF,w
  2287  0719  05F5               	andwf	loadPCF@dato,f
  2288  071A                     l1035:
  2289                           
  2290                           ;I2C_LCD_LIB.c: 31:     PCF_Wr(dato);
  2291  071A  0875               	movf	loadPCF@dato,w
  2292  071B  3186  266F  3186   	fcall	_PCF_Wr
  2293  071E                     l1037:
  2294                           
  2295                           ;I2C_LCD_LIB.c: 32:     _delay((unsigned long)((30)*(20000000UL/4000000.0)));
  2296  071E  3032               	movlw	50
  2297  071F                     u207:
  2298  071F  0B89               	decfsz	9,f
  2299  0720  2F1F               	goto	u207
  2300  0721                     l120:
  2301  0721  0008               	return
  2302  0722                     __end_of_loadPCF:
  2303                           
  2304                           	psect	text11
  2305  066F                     __ptext11:	
  2306 ;; *************** function _PCF_Wr *****************
  2307 ;; Defined at:
  2308 ;;		line 14 in file "I2C_LCD_LIB.c"
  2309 ;; Parameters:    Size  Location     Type
  2310 ;;  dato            1    wreg     unsigned char 
  2311 ;; Auto vars:     Size  Location     Type
  2312 ;;  dato            1    1[COMMON] unsigned char 
  2313 ;; Return value:  Size  Location     Type
  2314 ;;                  1    wreg      void 
  2315 ;; Registers used:
  2316 ;;		wreg, status,2, status,0, pclath, cstack
  2317 ;; Tracked objects:
  2318 ;;		On entry : 0/0
  2319 ;;		On exit  : 0/0
  2320 ;;		Unchanged: 0/0
  2321 ;; Data sizes:     COMMON   BANK0   BANK1   BANK2   BANK3   BANK4   BANK5   BANK6   BANK7   BANK8   BANK9  BANK10  BANK1
      +1  BANK12
  2322 ;;      Params:         0       0       0       0       0       0       0       0       0       0       0       0       
      +0       0
  2323 ;;      Locals:         1       0       0       0       0       0       0       0       0       0       0       0       
      +0       0
  2324 ;;      Temps:          0       0       0       0       0       0       0       0       0       0       0       0       
      +0       0
  2325 ;;      Totals:         1       0       0       0       0       0       0       0       0       0       0       0       
      +0       0
  2326 ;;Total ram usage:        1 bytes
  2327 ;; Hardware stack levels used: 1
  2328 ;; Hardware stack levels required when called: 2
  2329 ;; This function calls:
  2330 ;;		_I2C_Start
  2331 ;;		_I2C_Stop
  2332 ;;		_I2C_Wr
  2333 ;; This function is called by:
  2334 ;;		_loadPCF
  2335 ;;		_I2C_LCD_Init
  2336 ;; This function uses a non-reentrant model
  2337 ;;
  2338                           
  2339  066F                     _PCF_Wr:	
  2340                           ;psect for function _PCF_Wr
  2341                           
  2342                           
  2343                           ;incstack = 0
  2344                           ; Regs used in _PCF_Wr: [wreg+status,2+status,0+pclath+cstack]
  2345                           ;PCF_Wr@dato stored from wreg
  2346  066F  00F1               	movwf	PCF_Wr@dato
  2347  0670                     l1017:
  2348                           
  2349                           ;I2C_LCD_LIB.c: 15:     I2C_Start();
  2350  0670  3186  261B  3186   	fcall	_I2C_Start
  2351  0673  307E               	movlw	126
  2352  0674  3186  263F  3186   	fcall	_I2C_Wr
  2353                           
  2354                           ;I2C_LCD_LIB.c: 17:     I2C_Wr(dato | LED_STATUS);
  2355  0677  0871               	movf	PCF_Wr@dato,w
  2356  0678  3808               	iorlw	8
  2357  0679  3186  263F  3186   	fcall	_I2C_Wr
  2358                           
  2359                           ;I2C_LCD_LIB.c: 18:     I2C_Stop();
  2360  067C  3186  2621  3186   	fcall	_I2C_Stop
  2361  067F                     l113:
  2362  067F  0008               	return
  2363  0680                     __end_of_PCF_Wr:
  2364                           
  2365                           	psect	text12
  2366  063F                     __ptext12:	
  2367 ;; *************** function _I2C_Wr *****************
  2368 ;; Defined at:
  2369 ;;		line 28 in file "I2C_LIB.c"
  2370 ;; Parameters:    Size  Location     Type
  2371 ;;  data            1    wreg     unsigned char 
  2372 ;; Auto vars:     Size  Location     Type
  2373 ;;  data            1    0[COMMON] unsigned char 
  2374 ;; Return value:  Size  Location     Type
  2375 ;;                  1    wreg      void 
  2376 ;; Registers used:
  2377 ;;		wreg, status,2, status,0, pclath, cstack
  2378 ;; Tracked objects:
  2379 ;;		On entry : 0/0
  2380 ;;		On exit  : 0/0
  2381 ;;		Unchanged: 0/0
  2382 ;; Data sizes:     COMMON   BANK0   BANK1   BANK2   BANK3   BANK4   BANK5   BANK6   BANK7   BANK8   BANK9  BANK10  BANK1
      +1  BANK12
  2383 ;;      Params:         0       0       0       0       0       0       0       0       0       0       0       0       
      +0       0
  2384 ;;      Locals:         1       0       0       0       0       0       0       0       0       0       0       0       
      +0       0
  2385 ;;      Temps:          0       0       0       0       0       0       0       0       0       0       0       0       
      +0       0
  2386 ;;      Totals:         1       0       0       0       0       0       0       0       0       0       0       0       
      +0       0
  2387 ;;Total ram usage:        1 bytes
  2388 ;; Hardware stack levels used: 1
  2389 ;; Hardware stack levels required when called: 1
  2390 ;; This function calls:
  2391 ;;		_I2C_BusStatus
  2392 ;; This function is called by:
  2393 ;;		_main
  2394 ;;		_PCF_Wr
  2395 ;; This function uses a non-reentrant model
  2396 ;;
  2397                           
  2398  063F                     _I2C_Wr:	
  2399                           ;psect for function _I2C_Wr
  2400                           
  2401                           
  2402                           ;incstack = 0
  2403                           ; Regs used in _I2C_Wr: [wreg+status,2+status,0+pclath+cstack]
  2404                           ;I2C_Wr@data stored from wreg
  2405  063F  00F0               	movwf	I2C_Wr@data
  2406  0640                     l1009:
  2407                           
  2408                           ;I2C_LIB.c: 29:     I2C_BusStatus();
  2409  0640  3186  2647  3186   	fcall	_I2C_BusStatus
  2410  0643                     l1011:
  2411                           
  2412                           ;I2C_LIB.c: 30:     SSPBUF = data;
  2413  0643  0870               	movf	I2C_Wr@data,w
  2414  0644  0024               	movlb	4	; select bank4
  2415  0645  0091               	movwf	17	;volatile
  2416  0646                     l85:
  2417  0646  0008               	return
  2418  0647                     __end_of_I2C_Wr:
  2419                           
  2420                           	psect	text13
  2421  0621                     __ptext13:	
  2422 ;; *************** function _I2C_Stop *****************
  2423 ;; Defined at:
  2424 ;;		line 20 in file "I2C_LIB.c"
  2425 ;; Parameters:    Size  Location     Type
  2426 ;;		None
  2427 ;; Auto vars:     Size  Location     Type
  2428 ;;		None
  2429 ;; Return value:  Size  Location     Type
  2430 ;;                  1    wreg      void 
  2431 ;; Registers used:
  2432 ;;		wreg, status,2, status,0, pclath, cstack
  2433 ;; Tracked objects:
  2434 ;;		On entry : 0/0
  2435 ;;		On exit  : 0/0
  2436 ;;		Unchanged: 0/0
  2437 ;; Data sizes:     COMMON   BANK0   BANK1   BANK2   BANK3   BANK4   BANK5   BANK6   BANK7   BANK8   BANK9  BANK10  BANK1
      +1  BANK12
  2438 ;;      Params:         0       0       0       0       0       0       0       0       0       0       0       0       
      +0       0
  2439 ;;      Locals:         0       0       0       0       0       0       0       0       0       0       0       0       
      +0       0
  2440 ;;      Temps:          0       0       0       0       0       0       0       0       0       0       0       0       
      +0       0
  2441 ;;      Totals:         0       0       0       0       0       0       0       0       0       0       0       0       
      +0       0
  2442 ;;Total ram usage:        0 bytes
  2443 ;; Hardware stack levels used: 1
  2444 ;; Hardware stack levels required when called: 1
  2445 ;; This function calls:
  2446 ;;		_I2C_BusStatus
  2447 ;; This function is called by:
  2448 ;;		_main
  2449 ;;		_PCF_Wr
  2450 ;; This function uses a non-reentrant model
  2451 ;;
  2452                           
  2453  0621                     _I2C_Stop:	
  2454                           ;psect for function _I2C_Stop
  2455                           
  2456  0621                     l1013:	
  2457                           ;incstack = 0
  2458                           ; Regs used in _I2C_Stop: [wreg+status,2+status,0+pclath+cstack]
  2459                           
  2460                           
  2461                           ;I2C_LIB.c: 21:    I2C_BusStatus();
  2462  0621  3186  2647  3186   	fcall	_I2C_BusStatus
  2463  0624                     l1015:
  2464                           
  2465                           ;I2C_LIB.c: 22:    SSPCON2bits.PEN = 1;
  2466  0624  0024               	movlb	4	; select bank4
  2467  0625  1516               	bsf	22,2	;volatile
  2468  0626                     l79:
  2469  0626  0008               	return
  2470  0627                     __end_of_I2C_Stop:
  2471                           
  2472                           	psect	text14
  2473  061B                     __ptext14:	
  2474 ;; *************** function _I2C_Start *****************
  2475 ;; Defined at:
  2476 ;;		line 16 in file "I2C_LIB.c"
  2477 ;; Parameters:    Size  Location     Type
  2478 ;;		None
  2479 ;; Auto vars:     Size  Location     Type
  2480 ;;		None
  2481 ;; Return value:  Size  Location     Type
  2482 ;;                  1    wreg      void 
  2483 ;; Registers used:
  2484 ;;		wreg, status,2, status,0, pclath, cstack
  2485 ;; Tracked objects:
  2486 ;;		On entry : 0/0
  2487 ;;		On exit  : 0/0
  2488 ;;		Unchanged: 0/0
  2489 ;; Data sizes:     COMMON   BANK0   BANK1   BANK2   BANK3   BANK4   BANK5   BANK6   BANK7   BANK8   BANK9  BANK10  BANK1
      +1  BANK12
  2490 ;;      Params:         0       0       0       0       0       0       0       0       0       0       0       0       
      +0       0
  2491 ;;      Locals:         0       0       0       0       0       0       0       0       0       0       0       0       
      +0       0
  2492 ;;      Temps:          0       0       0       0       0       0       0       0       0       0       0       0       
      +0       0
  2493 ;;      Totals:         0       0       0       0       0       0       0       0       0       0       0       0       
      +0       0
  2494 ;;Total ram usage:        0 bytes
  2495 ;; Hardware stack levels used: 1
  2496 ;; Hardware stack levels required when called: 1
  2497 ;; This function calls:
  2498 ;;		_I2C_BusStatus
  2499 ;; This function is called by:
  2500 ;;		_main
  2501 ;;		_PCF_Wr
  2502 ;; This function uses a non-reentrant model
  2503 ;;
  2504                           
  2505  061B                     _I2C_Start:	
  2506                           ;psect for function _I2C_Start
  2507                           
  2508  061B                     l1005:	
  2509                           ;incstack = 0
  2510                           ; Regs used in _I2C_Start: [wreg+status,2+status,0+pclath+cstack]
  2511                           
  2512                           
  2513                           ;I2C_LIB.c: 17:     I2C_BusStatus();
  2514  061B  3186  2647  3186   	fcall	_I2C_BusStatus
  2515  061E                     l1007:
  2516                           
  2517                           ;I2C_LIB.c: 18:     SSPCON2bits.SEN = 1;
  2518  061E  0024               	movlb	4	; select bank4
  2519  061F  1416               	bsf	22,0	;volatile
  2520  0620                     l76:
  2521  0620  0008               	return
  2522  0621                     __end_of_I2C_Start:
  2523                           
  2524                           	psect	text15
  2525  0647                     __ptext15:	
  2526 ;; *************** function _I2C_BusStatus *****************
  2527 ;; Defined at:
  2528 ;;		line 44 in file "I2C_LIB.c"
  2529 ;; Parameters:    Size  Location     Type
  2530 ;;		None
  2531 ;; Auto vars:     Size  Location     Type
  2532 ;;		None
  2533 ;; Return value:  Size  Location     Type
  2534 ;;                  1    wreg      void 
  2535 ;; Registers used:
  2536 ;;		wreg, status,2
  2537 ;; Tracked objects:
  2538 ;;		On entry : 0/0
  2539 ;;		On exit  : 0/0
  2540 ;;		Unchanged: 0/0
  2541 ;; Data sizes:     COMMON   BANK0   BANK1   BANK2   BANK3   BANK4   BANK5   BANK6   BANK7   BANK8   BANK9  BANK10  BANK1
      +1  BANK12
  2542 ;;      Params:         0       0       0       0       0       0       0       0       0       0       0       0       
      +0       0
  2543 ;;      Locals:         0       0       0       0       0       0       0       0       0       0       0       0       
      +0       0
  2544 ;;      Temps:          0       0       0       0       0       0       0       0       0       0       0       0       
      +0       0
  2545 ;;      Totals:         0       0       0       0       0       0       0       0       0       0       0       0       
      +0       0
  2546 ;;Total ram usage:        0 bytes
  2547 ;; Hardware stack levels used: 1
  2548 ;; This function calls:
  2549 ;;		Nothing
  2550 ;; This function is called by:
  2551 ;;		_I2C_Start
  2552 ;;		_I2C_Stop
  2553 ;;		_I2C_Restart
  2554 ;;		_I2C_Wr
  2555 ;;		_I2C_Rd
  2556 ;; This function uses a non-reentrant model
  2557 ;;
  2558                           
  2559  0647                     _I2C_BusStatus:	
  2560                           ;psect for function _I2C_BusStatus
  2561                           
  2562  0647                     l999:	
  2563                           ;incstack = 0
  2564                           ; Regs used in _I2C_BusStatus: [wreg+status,2]
  2565                           
  2566  0647                     l1001:	
  2567                           ;I2C_LIB.c: 45:     while( (SSPCON2 & 0x1F) || (SSPSTAT & 0x04) );
  2568                           
  2569  0647  0024               	movlb	4	; select bank4
  2570  0648  0816               	movf	22,w	;volatile
  2571  0649  391F               	andlw	31
  2572  064A  1D03               	btfss	3,2
  2573  064B  2E4D               	goto	u71
  2574  064C  2E4E               	goto	u70
  2575  064D                     u71:
  2576  064D  2E47               	goto	l1001
  2577  064E                     u70:
  2578  064E                     l1003:
  2579  064E  1914               	btfsc	20,2	;volatile
  2580  064F  2E51               	goto	u81
  2581  0650  2E52               	goto	u80
  2582  0651                     u81:
  2583  0651  2E47               	goto	l1001
  2584  0652                     u80:
  2585  0652                     l94:
  2586  0652  0008               	return
  2587  0653                     __end_of_I2C_BusStatus:
  2588                           
  2589                           	psect	text16
  2590  0653                     __ptext16:	
  2591 ;; *************** function _I2C_Init *****************
  2592 ;; Defined at:
  2593 ;;		line 3 in file "I2C_LIB.c"
  2594 ;; Parameters:    Size  Location     Type
  2595 ;;		None
  2596 ;; Auto vars:     Size  Location     Type
  2597 ;;		None
  2598 ;; Return value:  Size  Location     Type
  2599 ;;                  1    wreg      void 
  2600 ;; Registers used:
  2601 ;;		wreg, status,2, status,0
  2602 ;; Tracked objects:
  2603 ;;		On entry : 0/0
  2604 ;;		On exit  : 0/0
  2605 ;;		Unchanged: 0/0
  2606 ;; Data sizes:     COMMON   BANK0   BANK1   BANK2   BANK3   BANK4   BANK5   BANK6   BANK7   BANK8   BANK9  BANK10  BANK1
      +1  BANK12
  2607 ;;      Params:         0       0       0       0       0       0       0       0       0       0       0       0       
      +0       0
  2608 ;;      Locals:         0       0       0       0       0       0       0       0       0       0       0       0       
      +0       0
  2609 ;;      Temps:          0       0       0       0       0       0       0       0       0       0       0       0       
      +0       0
  2610 ;;      Totals:         0       0       0       0       0       0       0       0       0       0       0       0       
      +0       0
  2611 ;;Total ram usage:        0 bytes
  2612 ;; Hardware stack levels used: 1
  2613 ;; This function calls:
  2614 ;;		Nothing
  2615 ;; This function is called by:
  2616 ;;		_main
  2617 ;; This function uses a non-reentrant model
  2618 ;;
  2619                           
  2620  0653                     _I2C_Init:	
  2621                           ;psect for function _I2C_Init
  2622                           
  2623  0653                     l1085:	
  2624                           ;incstack = 0
  2625                           ; Regs used in _I2C_Init: [wreg+status,2+status,0]
  2626                           
  2627                           
  2628                           ;I2C_LIB.c: 4:     TRISCbits.TRISC3 = 1;
  2629  0653  0021               	movlb	1	; select bank1
  2630  0654  158E               	bsf	14,3	;volatile
  2631                           
  2632                           ;I2C_LIB.c: 5:     TRISCbits.TRISC4 = 1;
  2633  0655  160E               	bsf	14,4	;volatile
  2634  0656                     l1087:
  2635                           
  2636                           ;I2C_LIB.c: 7:     SSPCON1bits.SSPM = 0b1000;
  2637  0656  0024               	movlb	4	; select bank4
  2638  0657  0815               	movf	21,w	;volatile
  2639  0658  39F0               	andlw	-16
  2640  0659  3808               	iorlw	8
  2641  065A  0095               	movwf	21	;volatile
  2642  065B                     l1089:
  2643                           
  2644                           ;I2C_LIB.c: 8:     SSPSTATbits.SMP = 1;
  2645  065B  1794               	bsf	20,7	;volatile
  2646  065C                     l1091:
  2647                           
  2648                           ;I2C_LIB.c: 9:     SSPCON1bits.SSPEN = 1;
  2649  065C  1695               	bsf	21,5	;volatile
  2650  065D                     l1093:
  2651                           
  2652                           ;I2C_LIB.c: 11:     SSPADD = 19;
  2653  065D  3013               	movlw	19
  2654  065E  0092               	movwf	18	;volatile
  2655  065F                     l1095:
  2656                           
  2657                           ;I2C_LIB.c: 13:     SSPCON2 = 0x00;
  2658  065F  0196               	clrf	22	;volatile
  2659  0660                     l73:
  2660  0660  0008               	return
  2661  0661                     __end_of_I2C_Init:
  2662  007E                     btemp	set	126	;btemp
  2663  007E                     wtemp0	set	126
  2664                           
  2665                           	psect	idloc
  2666                           
  2667                           ;Config register IDLOC0 @ 0x8000
  2668                           ;	unspecified, using default values
  2669  8000                     	org	32768
  2670  8000  3FFF               	dw	16383
  2671                           
  2672                           ;Config register IDLOC1 @ 0x8001
  2673                           ;	unspecified, using default values
  2674  8001                     	org	32769
  2675  8001  3FFF               	dw	16383
  2676                           
  2677                           ;Config register IDLOC2 @ 0x8002
  2678                           ;	unspecified, using default values
  2679  8002                     	org	32770
  2680  8002  3FFF               	dw	16383
  2681                           
  2682                           ;Config register IDLOC3 @ 0x8003
  2683                           ;	unspecified, using default values
  2684  8003                     	org	32771
  2685  8003  3FFF               	dw	16383
  2686                           
  2687                           	psect	config
  2688                           
  2689                           ;Config register CONFIG1 @ 0x8007
  2690                           ;	Oscillator Selection
  2691                           ;	FOSC = ECH, ECH, External Clock, High Power Mode (4-32 MHz): device clock supplied to 
      +                          CLKIN pin
  2692                           ;	Watchdog Timer Enable
  2693                           ;	WDTE = OFF, WDT disabled
  2694                           ;	Power-up Timer Enable
  2695                           ;	PWRTE = OFF, PWRT disabled
  2696                           ;	MCLR Pin Function Select
  2697                           ;	MCLRE = ON, MCLR/VPP pin function is MCLR
  2698                           ;	Flash Program Memory Code Protection
  2699                           ;	CP = OFF, Program memory code protection is disabled
  2700                           ;	Data Memory Code Protection
  2701                           ;	CPD = OFF, Data memory code protection is disabled
  2702                           ;	Brown-out Reset Enable
  2703                           ;	BOREN = ON, Brown-out Reset enabled
  2704                           ;	Clock Out Enable
  2705                           ;	CLKOUTEN = OFF, CLKOUT function is disabled. I/O or oscillator function on the CLKOUT 
      +                          pin
  2706                           ;	Internal/External Switchover
  2707                           ;	IESO = ON, Internal/External Switchover mode is enabled
  2708                           ;	Fail-Safe Clock Monitor Enable
  2709                           ;	FCMEN = ON, Fail-Safe Clock Monitor is enabled
  2710  8007                     	org	32775
  2711  8007  3FE7               	dw	16359
  2712                           
  2713                           ;Config register CONFIG2 @ 0x8008
  2714                           ;	Flash Memory Self-Write Protection
  2715                           ;	WRT = OFF, Write protection off
  2716                           ;	Voltage Regulator Capacitor Enable
  2717                           ;	VCAPEN = OFF, All VCAP pin functionality is disabled
  2718                           ;	PLL Enable
  2719                           ;	PLLEN = OFF, 4x PLL disabled
  2720                           ;	Stack Overflow/Underflow Reset Enable
  2721                           ;	STVREN = ON, Stack Overflow or Underflow will cause a Reset
  2722                           ;	Brown-out Reset Voltage Selection
  2723                           ;	BORV = LO, Brown-out Reset Voltage (Vbor), low trip point selected.
  2724                           ;	Low-Voltage Programming Enable
  2725                           ;	LVP = ON, Low-voltage programming enabled
  2726  8008                     	org	32776
  2727  8008  3EFF               	dw	16127

Data Sizes:
    Strings     6
    Constant    0
    Data        14
    BSS         1
    Persistent  32
    Stack       0

Auto Spaces:
    Space          Size  Autos    Used
    COMMON           14     14      14
    BANK0            80     10      25
    BANK1            80      0       0
    BANK2            80      0       0
    BANK3            80      0       0
    BANK4            80      0       0
    BANK5            80      0       0
    BANK6            80      0       0
    BANK7            80      0       0
    BANK8            80      0       0
    BANK9            80      0       0
    BANK10           80      0       0
    BANK11           80      0       0
    BANK12           48      0       0

Pointer List with Targets:

    I2C_LCD_Write_Text@text	PTR unsigned char  size(2) Largest target is 6
		 -> STR_1(CODE[6]), 


Critical Paths under _main in COMMON

    _main->_I2C_LCD_Write_Text
    _I2C_LCD_Write_Text->_I2C_LCD_Set_Cursor
    _I2C_LCD_Write_Cp->_sendDATA
    _sendDATA->_loadPCF
    _I2C_LCD_Set_Cursor->_I2C_LCD_Cmd
    _I2C_LCD_Init->_I2C_LCD_Cmd
    _I2C_LCD_Cmd->_sendCMD
    _sendCMD->_loadPCF
    _loadPCF->_PCF_Wr
    _PCF_Wr->_I2C_Wr

Critical Paths under _main in BANK0

    _main->_I2C_LCD_Write_Text
    _I2C_LCD_Write_Text->_I2C_LCD_Set_Cursor

Critical Paths under _main in BANK1

    None.

Critical Paths under _main in BANK2

    None.

Critical Paths under _main in BANK3

    None.

Critical Paths under _main in BANK4

    None.

Critical Paths under _main in BANK5

    None.

Critical Paths under _main in BANK6

    None.

Critical Paths under _main in BANK7

    None.

Critical Paths under _main in BANK8

    None.

Critical Paths under _main in BANK9

    None.

Critical Paths under _main in BANK10

    None.

Critical Paths under _main in BANK11

    None.

Critical Paths under _main in BANK12

    None.

Call Graph Tables:

 ---------------------------------------------------------------------------------
 (Depth) Function   	        Calls       Base Space   Used Autos Params    Refs
 ---------------------------------------------------------------------------------
 (0) _main                                                 2     2      0    2804
                                              8 BANK0      2     2      0
                           _I2C_Init
                       _I2C_LCD_Init
                 _I2C_LCD_Write_Text
                             _I2C_Rd
                        _I2C_Restart
                          _I2C_Start
                           _I2C_Stop
                             _I2C_Wr
 ---------------------------------------------------------------------------------
 (1) _I2C_Restart                                          0     0      0       0
                      _I2C_BusStatus
 ---------------------------------------------------------------------------------
 (1) _I2C_Rd                                               2     2      0      23
                                              0 COMMON     2     2      0
                      _I2C_BusStatus
 ---------------------------------------------------------------------------------
 (1) _I2C_LCD_Write_Text                                   5     2      3    1633
                                             13 COMMON     1     1      0
                                              4 BANK0      4     1      3
                 _I2C_LCD_Set_Cursor
                   _I2C_LCD_Write_Cp
 ---------------------------------------------------------------------------------
 (2) _I2C_LCD_Write_Cp                                     1     1      0     552
                                             11 COMMON     1     1      0
                           _sendDATA
 ---------------------------------------------------------------------------------
 (3) _sendDATA                                             5     5      0     530
                                              6 COMMON     5     5      0
                            _loadPCF
 ---------------------------------------------------------------------------------
 (2) _I2C_LCD_Set_Cursor                                   5     4      1     840
                                             12 COMMON     1     0      1
                                              0 BANK0      4     4      0
                        _I2C_LCD_Cmd
 ---------------------------------------------------------------------------------
 (1) _I2C_LCD_Init                                         1     1      0    1126
                                             12 COMMON     1     1      0
                        _I2C_LCD_Cmd
                             _PCF_Wr
                            _sendCMD
 ---------------------------------------------------------------------------------
 (3) _I2C_LCD_Cmd                                          1     1      0     552
                                             11 COMMON     1     1      0
                            _sendCMD
 ---------------------------------------------------------------------------------
 (4) _sendCMD                                              5     5      0     530
                                              6 COMMON     5     5      0
                            _loadPCF
 ---------------------------------------------------------------------------------
 (4) _loadPCF                                              4     3      1     440
                                              2 COMMON     4     3      1
                             _PCF_Wr
 ---------------------------------------------------------------------------------
 (5) _PCF_Wr                                               1     1      0      44
                                              1 COMMON     1     1      0
                          _I2C_Start
                           _I2C_Stop
                             _I2C_Wr
 ---------------------------------------------------------------------------------
 (1) _I2C_Wr                                               1     1      0      22
                                              0 COMMON     1     1      0
                      _I2C_BusStatus
 ---------------------------------------------------------------------------------
 (1) _I2C_Stop                                             0     0      0       0
                      _I2C_BusStatus
 ---------------------------------------------------------------------------------
 (1) _I2C_Start                                            0     0      0       0
                      _I2C_BusStatus
 ---------------------------------------------------------------------------------
 (2) _I2C_BusStatus                                        0     0      0       0
 ---------------------------------------------------------------------------------
 (1) _I2C_Init                                             0     0      0       0
 ---------------------------------------------------------------------------------
 Estimated maximum stack depth 5
 ---------------------------------------------------------------------------------

 Call Graph Graphs:

 _main (ROOT)
   _I2C_Init
   _I2C_LCD_Init
     _I2C_LCD_Cmd
       _sendCMD
         _loadPCF
           _PCF_Wr
             _I2C_Start
               _I2C_BusStatus
             _I2C_Stop
               _I2C_BusStatus
             _I2C_Wr
               _I2C_BusStatus
     _PCF_Wr
     _sendCMD
   _I2C_LCD_Write_Text
     _I2C_LCD_Set_Cursor
       _I2C_LCD_Cmd
     _I2C_LCD_Write_Cp
       _sendDATA
         _loadPCF
   _I2C_Rd
     _I2C_BusStatus
   _I2C_Restart
     _I2C_BusStatus
   _I2C_Start
   _I2C_Stop
   _I2C_Wr

 Address spaces:
Name               Size   Autos  Total    Cost      Usage
BIGRAM             3F0      0       0       0        0.0%
EEDATA             100      0       0       0        0.0%
NULL                 0      0       0       0        0.0%
CODE                 0      0       0       0        0.0%
BITCOMMON            E      0       0       1        0.0%
BITSFR0              0      0       0       1        0.0%
SFR0                 0      0       0       1        0.0%
COMMON               E      E       E       2      100.0%
BITSFR1              0      0       0       2        0.0%
SFR1                 0      0       0       2        0.0%
BITSFR2              0      0       0       3        0.0%
SFR2                 0      0       0       3        0.0%
STACK                0      0       0       3        0.0%
BITBANK0            50      0       0       4        0.0%
BITSFR3              0      0       0       4        0.0%
SFR3                 0      0       0       4        0.0%
BANK0               50      A      19       5       31.2%
BITSFR4              0      0       0       5        0.0%
SFR4                 0      0       0       5        0.0%
BITBANK1            50      0       0       6        0.0%
BITSFR5              0      0       0       6        0.0%
SFR5                 0      0       0       6        0.0%
BANK1               50      0       0       7        0.0%
BITSFR6              0      0       0       7        0.0%
SFR6                 0      0       0       7        0.0%
BITBANK2            50      0       0       8        0.0%
BITSFR7              0      0       0       8        0.0%
SFR7                 0      0       0       8        0.0%
BANK2               50      0       0       9        0.0%
BITSFR8              0      0       0       9        0.0%
SFR8                 0      0       0       9        0.0%
BITBANK3            50      0       0      10        0.0%
BITSFR9              0      0       0      10        0.0%
SFR9                 0      0       0      10        0.0%
BANK3               50      0       0      11        0.0%
BITSFR10             0      0       0      11        0.0%
SFR10                0      0       0      11        0.0%
BITBANK4            50      0       0      12        0.0%
BITSFR11             0      0       0      12        0.0%
SFR11                0      0       0      12        0.0%
BANK4               50      0       0      13        0.0%
BITSFR12             0      0       0      13        0.0%
SFR12                0      0       0      13        0.0%
BITBANK5            50      0       0      14        0.0%
BITSFR13             0      0       0      14        0.0%
SFR13                0      0       0      14        0.0%
BANK5               50      0       0      15        0.0%
BITSFR14             0      0       0      15        0.0%
SFR14                0      0       0      15        0.0%
BITBANK6            50      0       0      16        0.0%
BITSFR15             0      0       0      16        0.0%
SFR15                0      0       0      16        0.0%
BANK6               50      0       0      17        0.0%
BITSFR16             0      0       0      17        0.0%
SFR16                0      0       0      17        0.0%
BITBANK7            50      0       0      18        0.0%
BITSFR17             0      0       0      18        0.0%
SFR17                0      0       0      18        0.0%
BANK7               50      0       0      19        0.0%
BITSFR18             0      0       0      19        0.0%
SFR18                0      0       0      19        0.0%
BITSFR19             0      0       0      20        0.0%
SFR19                0      0       0      20        0.0%
ABS                  0      0      27      20        0.0%
BITBANK8            50      0       0      21        0.0%
BITSFR20             0      0       0      21        0.0%
SFR20                0      0       0      21        0.0%
BANK8               50      0       0      22        0.0%
BITSFR21             0      0       0      22        0.0%
SFR21                0      0       0      22        0.0%
BITBANK9            50      0       0      23        0.0%
BITSFR22             0      0       0      23        0.0%
SFR22                0      0       0      23        0.0%
BANK9               50      0       0      24        0.0%
BITSFR23             0      0       0      24        0.0%
SFR23                0      0       0      24        0.0%
BITBANK10           50      0       0      25        0.0%
BITSFR24             0      0       0      25        0.0%
SFR24                0      0       0      25        0.0%
BANK10              50      0       0      26        0.0%
BITSFR25             0      0       0      26        0.0%
SFR25                0      0       0      26        0.0%
BITBANK11           50      0       0      27        0.0%
BITSFR26             0      0       0      27        0.0%
SFR26                0      0       0      27        0.0%
BANK11              50      0       0      28        0.0%
BITSFR27             0      0       0      28        0.0%
SFR27                0      0       0      28        0.0%
BITBANK12           30      0       0      29        0.0%
BITSFR28             0      0       0      29        0.0%
SFR28                0      0       0      29        0.0%
BANK12              30      0       0      30        0.0%
BITSFR29             0      0       0      30        0.0%
SFR29                0      0       0      30        0.0%
BITSFR30             0      0       0      31        0.0%
SFR30                0      0       0      31        0.0%
DATA                 0      0      27      31        0.0%
BITSFR31             0      0       0      32        0.0%
SFR31                0      0       0      32        0.0%


Microchip Technology PIC Macro Assembler V2.36 build 20220127204148 
Symbol Table                                                                                   Fri Nov 10 09:18:49 2023

               _SSPSTATbits 0214                          l73 0660                          l82 0638  
                        l76 0620                          l85 0646                          l94 0652  
                        l79 0626                          l88 0694                          u70 064E  
                        u71 064D                          u80 0652                          u81 0651  
                        u95 069F                          _hh 002A                          _mm 0028  
                        _ss 0026                         l120 0721                         l113 067F  
                       l123 06D0                         l132 062C                         l126 06B1  
                       l150 0757                         l135 0632                         l129 079F  
                       l159 06F3                         l999 0647                         u110 06F3  
                       u111 06F2                         u105 06BC                         u207 071F  
                       u137 07E6                         u147 075F                         u157 076A  
                       u167 0774                         u177 0784                         u187 0791  
                       u197 079B                         _dia 0024                         _mes 0022  
                       wreg 0009                _I2C_LCD_Init 0758                        l1001 0647  
                      l1003 064E                        l1011 0643                        l1005 061B  
                      l1013 0621                        l1021 06F6                        l1101 0763  
                      l1007 061E                        l1015 0624                        l1031 0711  
                      l1023 06FB                        l1111 077B                        l1103 0767  
                      l1009 0640                        l1017 0670                        l1033 0716  
                      l1121 0790                        l1113 077F                        l1105 076F  
                      l1035 071A                        l1027 06FD                        l1019 06F5  
                      l1043 0696                        l1123 0794                        l1115 0783  
                      l1107 0773                        l1051 06B3                        l1131 06E4  
                      l1037 071E                        l1029 070D                        l1045 069B  
                      l1125 0798                        l1117 0787                        l1109 0777  
                      l1053 06B8                        l1061 062E                        l1133 06E9  
                      l1141 0683                        l1047 06A7                        l1119 078C  
                      l1071 0737                        l1063 0724                        l1055 06C4  
                      l1127 06D3                        l1143 0688                        l1135 0633  
                      l1049 06AC                        l1065 0725                        l1057 06CA  
                      l1129 06DC                        l1145 068D                        l1137 0636  
                      l1161 07A9                        l1153 07A0                        l1091 065C  
                      l1059 0628                        l1243 0745                        l1067 072B  
                      l1075 073D                        l1147 0690                        l1139 0680  
                      l1171 07C0                        l1163 07AC                        l1155 07A3  
                      l1093 065D                        l1085 0653                        l1245 0705  
                      l1069 0731                        l1077 0753                        l1149 0692  
                      l1181 07D9                        l1173 07C4                        l1165 07B9  
                      l1157 07A4                        l1095 065F                        l1087 0656  
                      l1175 07C8                        l1167 07BB                        l1159 07A6  
                      l1089 065B                        l1097 0758                        l1177 07CB  
                      l1169 07BD                        l1099 075C                        l1179 07CF  
                      STR_1 0800                        _LATD 010F                        _main 07A0  
          __end_of_I2C_Init 0661                        _year 0020                        fsr0h 0005  
                      fsr1h 0007                        indf0 0000                        fsr0l 0004  
                      fsr1l 0006                        btemp 007E            __end_of_I2C_Stop 0627  
__end_of_I2C_LCD_Set_Cursor 0758                        start 0002             sendDATA@nibbleH 0078  
           sendDATA@nibbleL 0079                       ?_main 0070              sendCMD@nibbleH 0078  
            sendCMD@nibbleL 0079                       _TRISD 008F                 loadPCF@dato 0075  
               loadPCF@mode 0072             __end_of_loadPCF 0722             __end_of_sendCMD 06B2  
         __end_of_I2C_Start 0621           ?_I2C_LCD_Write_Cp 0070                       status 0003  
                     wtemp0 007E          ??_I2C_LCD_Write_Cp 007B             __initialization 07F0  
              __end_of_main 07F0                      ??_main 0036  __end_of_I2C_LCD_Write_Text 06F4  
                    _I2C_Rd 0680                      _I2C_Wr 063F                      _ANSELD 018F  
                    _BORCON 0116                      _PCF_Wr 066F                      _OSCCON 0099  
                    _SSPADD 0212                      _SSPBUF 0211               _I2C_BusStatus 0647  
          __end_of_sendDATA 06D1                   ??_loadPCF 0073                   ?_I2C_Init 0070  
                 ??_sendCMD 0076                   ?_I2C_Stop 0070       I2C_LCD_Write_Cp@letra 007B  
   __end_of__initialization 07FD              ?_I2C_BusStatus 0070              __pcstackCOMMON 0070  
              __pidataBANK0 0661       I2C_LCD_Write_Text@fil 0035       I2C_LCD_Write_Text@col 0032  
                ??_I2C_Init 0070                  ??_I2C_Stop 0070                     ?_I2C_Rd 0070  
                   ?_I2C_Wr 0070                  __pbssBANK0 0038               ??_I2C_LCD_Cmd 007B  
                   ?_PCF_Wr 0070                  __pmaintext 07A0                  I2C_Wr@data 0070  
        _I2C_LCD_Set_Cursor 0722                     _DIR_PCF 002D               ??_I2C_Restart 0070  
       ?_I2C_LCD_Set_Cursor 007C                     _OSCTUNE 0098                     _SSPCON2 0216  
                   _SSPSTAT 0214             ??_I2C_BusStatus 0070                   ?_sendDATA 0070  
                 _I2C_Start 061B         __end_of_I2C_LCD_Cmd 062D        ??_I2C_LCD_Set_Cursor 002E  
                   __ptext1 0633                     __ptext2 0680                     __ptext3 06D1  
                   __ptext4 062D                     __ptext5 06B2                     __ptext6 0722  
                   __ptext7 0758                     __ptext8 0627                     __ptext9 0695  
                   _loadPCF 06F4                     _sendCMD 0695         __end_of_I2C_Restart 0639  
      end_of_initialization 07FD          _I2C_LCD_Write_Text 06D1                     init_ram 0639  
                   initloop 063A                  ??_sendDATA 0076                  ?_I2C_Start 0070  
       ?_I2C_LCD_Write_Text 0032        ??_I2C_LCD_Write_Text 007D                   _TRISCbits 008E  
              sendDATA@dato 007A              __end_of_I2C_Rd 0695              __end_of_I2C_Wr 0647  
               _I2C_LCD_Cmd 0627              __end_of_PCF_Wr 0680      I2C_LCD_Set_Cursor@fila 0030  
               _I2C_Restart 0633         start_initialization 07F0               ?_I2C_LCD_Init 0070  
                  ??_I2C_Rd 0070                    ??_I2C_Wr 0070                    ??_PCF_Wr 0071  
               __lcd_params 0038      I2C_LCD_Write_Text@text 0033                 ??_I2C_Start 0070  
               __pdataBANK0 0020            _I2C_LCD_Write_Cp 062D                  PCF_Wr@dato 0071  
                sendCMD@cmd 007A                   ___latbits 0003              ??_I2C_LCD_Init 007C  
             __pcstackBANK0 002E                 I2C_Rd@datoR 0071                    ?_loadPCF 0072  
                  _I2C_Init 0653                    ?_sendCMD 0070                    _I2C_Stop 0621  
     __end_of_I2C_BusStatus 0653       I2C_LCD_Set_Cursor@col 007C       I2C_LCD_Set_Cursor@pos 0031  
              ?_I2C_LCD_Cmd 0070        __end_of_I2C_LCD_Init 07A0              I2C_LCD_Cmd@cmd 007B  
              ?_I2C_Restart 0070                    __ptext10 06F4                    __ptext11 066F  
                  __ptext12 063F                    __ptext13 0621                    __ptext14 061B  
                  __ptext15 0647                    __ptext16 0653    __end_of_I2C_LCD_Write_Cp 0633  
                  _sendDATA 06B2                  _LED_STATUS 002C               __pstringtext1 0800  
             __pstringtext2 0000                 _SSPCON1bits 0215                 _SSPCON2bits 0216  
